ARM GAS  C:\Users\limak\AppData\Local\Temp\ccxefUlm.s 			page 1


   1              		.cpu cortex-m3
   2              		.arch armv7-m
   3              		.fpu softvfp
   4              		.eabi_attribute 20, 1
   5              		.eabi_attribute 21, 1
   6              		.eabi_attribute 23, 3
   7              		.eabi_attribute 24, 1
   8              		.eabi_attribute 25, 1
   9              		.eabi_attribute 26, 1
  10              		.eabi_attribute 30, 1
  11              		.eabi_attribute 34, 1
  12              		.eabi_attribute 18, 4
  13              		.file	"main.c"
  14              		.text
  15              	.Ltext0:
  16              		.cfi_sections	.debug_frame
  17              		.file 1 "Core/Src/main.c"
  18              		.section	.text.MX_GPIO_Init,"ax",%progbits
  19              		.align	1
  20              		.syntax unified
  21              		.thumb
  22              		.thumb_func
  24              	MX_GPIO_Init:
  25              	.LFB82:
   1:Core/Src/main.c **** #include "main.h"
   2:Core/Src/main.c **** #include "cmsis_os.h"
   3:Core/Src/main.c **** #include "stdio.h"
   4:Core/Src/main.c **** #include "string.h"
   5:Core/Src/main.c **** #include "stdbool.h"
   6:Core/Src/main.c **** #include "stm32_sw_i2c.h"
   7:Core/Src/main.c **** #include "dwt_stm32_delay.h"
   8:Core/Src/main.c **** 
   9:Core/Src/main.c **** I2C_HandleTypeDef hi2c1;
  10:Core/Src/main.c **** UART_HandleTypeDef huart1;
  11:Core/Src/main.c **** UART_HandleTypeDef huart2;
  12:Core/Src/main.c **** 
  13:Core/Src/main.c **** osThreadId defaultTaskHandle;
  14:Core/Src/main.c **** 
  15:Core/Src/main.c **** void SystemClock_Config(void);
  16:Core/Src/main.c **** static void MX_GPIO_Init(void);
  17:Core/Src/main.c **** static void MX_I2C1_Init(void);
  18:Core/Src/main.c **** static void MX_USART1_UART_Init(void);
  19:Core/Src/main.c **** static void MX_USART2_UART_Init(void);
  20:Core/Src/main.c **** void StartDefaultTask(void const * argument);
  21:Core/Src/main.c **** 
  22:Core/Src/main.c **** // breakout MCP3421: sda1 scl1 v+1 vcc gnd v+2 scl2 sda2
  23:Core/Src/main.c **** #define MCP3421_ADDR   (0x68 << 1)  // HAL usa endereço deslocado
  24:Core/Src/main.c **** #define DIVISOR_RES_MCP1 (0.33 / 1.33)
  25:Core/Src/main.c **** 
  26:Core/Src/main.c **** int32_t MCP3421_ReadRaw(void)
  27:Core/Src/main.c **** {
  28:Core/Src/main.c ****     uint8_t rx[4];
  29:Core/Src/main.c ****     
  30:Core/Src/main.c ****     // Config: 18 bits, Ganho 1, Contínuo
  31:Core/Src/main.c ****     uint8_t config = 0x9C;
  32:Core/Src/main.c ****     HAL_I2C_Master_Transmit(&hi2c1, MCP3421_ADDR, &config, 1, HAL_MAX_DELAY);
  33:Core/Src/main.c **** 
ARM GAS  C:\Users\limak\AppData\Local\Temp\ccxefUlm.s 			page 2


  34:Core/Src/main.c ****     // O tempo de conversão para 18 bits é de ~266ms (3.75 SPS)
  35:Core/Src/main.c ****     // Se ler antes disso no modo contínuo, você pega o valor anterior.
  36:Core/Src/main.c ****     // O ideal é checar o bit RDY no 4º byte lido.
  37:Core/Src/main.c ****     HAL_Delay(270); 
  38:Core/Src/main.c **** 
  39:Core/Src/main.c ****     if (HAL_I2C_Master_Receive(&hi2c1, MCP3421_ADDR, rx, 4, HAL_MAX_DELAY) == HAL_OK) {
  40:Core/Src/main.c ****         // Monta o valor de 18 bits com extensão de sinal correta
  41:Core/Src/main.c ****         // rx[0] tem os bits de sinal de 7 a 2.
  42:Core/Src/main.c ****         int32_t raw = ((int32_t)((int8_t)rx[0]) << 16) | (rx[1] << 8) | rx[2];
  43:Core/Src/main.c ****         return raw;
  44:Core/Src/main.c ****     }
  45:Core/Src/main.c ****     return 0;
  46:Core/Src/main.c **** }
  47:Core/Src/main.c **** 
  48:Core/Src/main.c **** int32_t MCP3421_Soft_ReadRaw(void) {
  49:Core/Src/main.c ****     uint8_t rx[3];
  50:Core/Src/main.c ****     uint8_t config = 0x9C; // 18 bits, ganho 1, contínuo
  51:Core/Src/main.c **** 
  52:Core/Src/main.c ****     // 1. Enviar configuração para iniciar/garantir modo
  53:Core/Src/main.c ****     // O MCP3421_ADDR já deve estar deslocado (0x68 << 1)
  54:Core/Src/main.c ****     I2C_write_byte(MCP3421_ADDR, true, false); 
  55:Core/Src/main.c ****     I2C_write_byte(config, false, true);
  56:Core/Src/main.c **** 
  57:Core/Src/main.c ****     // 2. Aguardar a conversão (270ms para 18 bits)
  58:Core/Src/main.c ****     HAL_Delay(270);
  59:Core/Src/main.c **** 
  60:Core/Src/main.c ****     // 3. Ler os dados
  61:Core/Src/main.c ****     // Enviamos o endereço com o bit de leitura (LSB = 1)
  62:Core/Src/main.c ****     if (I2C_write_byte(MCP3421_ADDR | 0x01, true, false)) {
  63:Core/Src/main.c ****         rx[0] = I2C_read_byte(true, false);  // MSB (com ACK)
  64:Core/Src/main.c ****         rx[1] = I2C_read_byte(true, false);  // Middle Byte (com ACK)
  65:Core/Src/main.c ****         rx[2] = I2C_read_byte(false, true);  // LSB (com NACK e STOP)
  66:Core/Src/main.c **** 
  67:Core/Src/main.c ****         // Montagem do valor de 18 bits (mesma lógica do seu original)
  68:Core/Src/main.c ****         int32_t raw = ((int32_t)((int8_t)rx[0]) << 16) | (rx[1] << 8) | rx[2];
  69:Core/Src/main.c ****         return raw;
  70:Core/Src/main.c ****     }
  71:Core/Src/main.c ****     
  72:Core/Src/main.c ****     return 0;
  73:Core/Src/main.c **** }
  74:Core/Src/main.c **** 
  75:Core/Src/main.c **** float mcpToVoltage(int32_t adc, uint8_t resolution) {
  76:Core/Src/main.c ****     int32_t maxCounts;
  77:Core/Src/main.c **** 
  78:Core/Src/main.c ****     switch (resolution) {
  79:Core/Src/main.c ****         case 12: maxCounts = 2048; break;
  80:Core/Src/main.c ****         case 14: maxCounts = 8192; break;
  81:Core/Src/main.c ****         case 16: maxCounts = 32768; break;
  82:Core/Src/main.c ****         case 18: maxCounts = 131072; break;
  83:Core/Src/main.c ****         default: maxCounts = 131072;
  84:Core/Src/main.c ****     }
  85:Core/Src/main.c **** 
  86:Core/Src/main.c ****     return (adc * 2.048) / maxCounts;
  87:Core/Src/main.c **** }
  88:Core/Src/main.c **** 
  89:Core/Src/main.c **** int main(void)
  90:Core/Src/main.c **** {
ARM GAS  C:\Users\limak\AppData\Local\Temp\ccxefUlm.s 			page 3


  91:Core/Src/main.c ****   HAL_Init();
  92:Core/Src/main.c ****   SystemClock_Config();
  93:Core/Src/main.c ****   MX_GPIO_Init();
  94:Core/Src/main.c ****   MX_I2C1_Init();
  95:Core/Src/main.c ****   MX_USART1_UART_Init();
  96:Core/Src/main.c ****   MX_USART2_UART_Init();
  97:Core/Src/main.c **** 
  98:Core/Src/main.c ****   // osThreadDef(defaultTask, StartDefaultTask, osPriorityNormal, 0, 128);
  99:Core/Src/main.c ****   // defaultTaskHandle = osThreadCreate(osThread(defaultTask), NULL);
 100:Core/Src/main.c **** 
 101:Core/Src/main.c ****   // osKernelStart();
 102:Core/Src/main.c **** 
 103:Core/Src/main.c ****   // IMPORTANTE: Inicializar o contador de microssegundos
 104:Core/Src/main.c ****   if (DWT_Delay_Init() != 0) {
 105:Core/Src/main.c ****       Error_Handler(); // Falha ao iniciar contador
 106:Core/Src/main.c ****   }
 107:Core/Src/main.c **** 
 108:Core/Src/main.c ****   I2C_init(); // Coloca as linhas em nível alto
 109:Core/Src/main.c **** 
 110:Core/Src/main.c ****   char msg[200];
 111:Core/Src/main.c ****   while (1)
 112:Core/Src/main.c ****   {
 113:Core/Src/main.c ****     int32_t raw = MCP3421_ReadRaw();
 114:Core/Src/main.c ****     float v = mcpToVoltage(raw, 18);
 115:Core/Src/main.c ****     float v_adjust = v / DIVISOR_RES_MCP1; // Ajusta para divisor de tensão externo
 116:Core/Src/main.c ****     int32_t integras = (int32_t)v_adjust;
 117:Core/Src/main.c ****     int32_t decimais = (int32_t)((v_adjust - integras) * 1000000); // 6 casas decimais
 118:Core/Src/main.c ****     if (decimais < 0) decimais *= -1; // Garante que a parte decimal seja positiva
 119:Core/Src/main.c **** 
 120:Core/Src/main.c ****     // Leitura do MCP via Software I2C (PB4/PB5)
 121:Core/Src/main.c ****     int32_t raw_soft = MCP3421_Soft_ReadRaw();
 122:Core/Src/main.c ****     // Conversão (usando sua função mcpToVoltage já existente)
 123:Core/Src/main.c ****     float v_soft = mcpToVoltage(raw_soft, 18);
 124:Core/Src/main.c ****     float v_soft_adjust = v_soft / DIVISOR_RES_MCP1;
 125:Core/Src/main.c ****     int32_t integras_soft = (int32_t)v_soft_adjust;
 126:Core/Src/main.c ****     int32_t decimais_soft = (int32_t)((v_soft_adjust - integras_soft) * 1000000);
 127:Core/Src/main.c ****     if (decimais_soft < 0) decimais_soft *= -1;
 128:Core/Src/main.c **** 
 129:Core/Src/main.c ****     snprintf(msg, sizeof(msg), "RAW: %ld | V: %ld.%06ld V | RAW_SOFT: %ld | V_SOFT: %ld.%06ld V\r\n
 130:Core/Src/main.c **** 
 131:Core/Src/main.c ****     HAL_UART_Transmit(&huart1, (uint8_t*)msg, strlen(msg), HAL_MAX_DELAY);
 132:Core/Src/main.c ****     HAL_GPIO_TogglePin(GPIOB, GPIO_PIN_11);
 133:Core/Src/main.c **** 
 134:Core/Src/main.c ****     HAL_Delay(500);
 135:Core/Src/main.c ****   }
 136:Core/Src/main.c **** }
 137:Core/Src/main.c **** 
 138:Core/Src/main.c **** /**
 139:Core/Src/main.c ****   * @brief System Clock Configuration
 140:Core/Src/main.c ****   * @retval None
 141:Core/Src/main.c ****   */
 142:Core/Src/main.c **** void SystemClock_Config(void)
 143:Core/Src/main.c **** {
 144:Core/Src/main.c ****   RCC_OscInitTypeDef RCC_OscInitStruct = {0};
 145:Core/Src/main.c ****   RCC_ClkInitTypeDef RCC_ClkInitStruct = {0};
 146:Core/Src/main.c **** 
 147:Core/Src/main.c ****   /** Initializes the RCC Oscillators according to the specified parameters
ARM GAS  C:\Users\limak\AppData\Local\Temp\ccxefUlm.s 			page 4


 148:Core/Src/main.c ****   * in the RCC_OscInitTypeDef structure.
 149:Core/Src/main.c ****   */
 150:Core/Src/main.c ****   RCC_OscInitStruct.OscillatorType = RCC_OSCILLATORTYPE_HSE;
 151:Core/Src/main.c ****   RCC_OscInitStruct.HSEState = RCC_HSE_ON;
 152:Core/Src/main.c ****   RCC_OscInitStruct.HSEPredivValue = RCC_HSE_PREDIV_DIV2;
 153:Core/Src/main.c ****   RCC_OscInitStruct.HSIState = RCC_HSI_ON;
 154:Core/Src/main.c ****   RCC_OscInitStruct.PLL.PLLState = RCC_PLL_ON;
 155:Core/Src/main.c ****   RCC_OscInitStruct.PLL.PLLSource = RCC_PLLSOURCE_HSE;
 156:Core/Src/main.c ****   RCC_OscInitStruct.PLL.PLLMUL = RCC_PLL_MUL9;
 157:Core/Src/main.c ****   if (HAL_RCC_OscConfig(&RCC_OscInitStruct) != HAL_OK)
 158:Core/Src/main.c ****   {
 159:Core/Src/main.c ****     Error_Handler();
 160:Core/Src/main.c ****   }
 161:Core/Src/main.c **** 
 162:Core/Src/main.c ****   /** Initializes the CPU, AHB and APB buses clocks
 163:Core/Src/main.c ****   */
 164:Core/Src/main.c ****   RCC_ClkInitStruct.ClockType = RCC_CLOCKTYPE_HCLK|RCC_CLOCKTYPE_SYSCLK
 165:Core/Src/main.c ****                               |RCC_CLOCKTYPE_PCLK1|RCC_CLOCKTYPE_PCLK2;
 166:Core/Src/main.c ****   RCC_ClkInitStruct.SYSCLKSource = RCC_SYSCLKSOURCE_PLLCLK;
 167:Core/Src/main.c ****   RCC_ClkInitStruct.AHBCLKDivider = RCC_SYSCLK_DIV1;
 168:Core/Src/main.c ****   RCC_ClkInitStruct.APB1CLKDivider = RCC_HCLK_DIV2;
 169:Core/Src/main.c ****   RCC_ClkInitStruct.APB2CLKDivider = RCC_HCLK_DIV1;
 170:Core/Src/main.c **** 
 171:Core/Src/main.c ****   if (HAL_RCC_ClockConfig(&RCC_ClkInitStruct, FLASH_LATENCY_2) != HAL_OK)
 172:Core/Src/main.c ****   {
 173:Core/Src/main.c ****     Error_Handler();
 174:Core/Src/main.c ****   }
 175:Core/Src/main.c **** }
 176:Core/Src/main.c **** 
 177:Core/Src/main.c **** /**
 178:Core/Src/main.c ****   * @brief I2C1 Initialization Function
 179:Core/Src/main.c ****   * @param None
 180:Core/Src/main.c ****   * @retval None
 181:Core/Src/main.c ****   */
 182:Core/Src/main.c **** static void MX_I2C1_Init(void)
 183:Core/Src/main.c **** {
 184:Core/Src/main.c **** 
 185:Core/Src/main.c ****   /* USER CODE BEGIN I2C1_Init 0 */
 186:Core/Src/main.c **** 
 187:Core/Src/main.c ****   /* USER CODE END I2C1_Init 0 */
 188:Core/Src/main.c **** 
 189:Core/Src/main.c ****   /* USER CODE BEGIN I2C1_Init 1 */
 190:Core/Src/main.c **** 
 191:Core/Src/main.c ****   /* USER CODE END I2C1_Init 1 */
 192:Core/Src/main.c ****   hi2c1.Instance = I2C1;
 193:Core/Src/main.c ****   hi2c1.Init.ClockSpeed = 100000;
 194:Core/Src/main.c ****   hi2c1.Init.DutyCycle = I2C_DUTYCYCLE_2;
 195:Core/Src/main.c ****   hi2c1.Init.OwnAddress1 = 0;
 196:Core/Src/main.c ****   hi2c1.Init.AddressingMode = I2C_ADDRESSINGMODE_7BIT;
 197:Core/Src/main.c ****   hi2c1.Init.DualAddressMode = I2C_DUALADDRESS_DISABLE;
 198:Core/Src/main.c ****   hi2c1.Init.OwnAddress2 = 0;
 199:Core/Src/main.c ****   hi2c1.Init.GeneralCallMode = I2C_GENERALCALL_DISABLE;
 200:Core/Src/main.c ****   hi2c1.Init.NoStretchMode = I2C_NOSTRETCH_DISABLE;
 201:Core/Src/main.c ****   if (HAL_I2C_Init(&hi2c1) != HAL_OK)
 202:Core/Src/main.c ****   {
 203:Core/Src/main.c ****     Error_Handler();
 204:Core/Src/main.c ****   }
ARM GAS  C:\Users\limak\AppData\Local\Temp\ccxefUlm.s 			page 5


 205:Core/Src/main.c ****   /* USER CODE BEGIN I2C1_Init 2 */
 206:Core/Src/main.c **** 
 207:Core/Src/main.c ****   /* USER CODE END I2C1_Init 2 */
 208:Core/Src/main.c **** 
 209:Core/Src/main.c **** }
 210:Core/Src/main.c **** 
 211:Core/Src/main.c **** /**
 212:Core/Src/main.c ****   * @brief USART1 Initialization Function
 213:Core/Src/main.c ****   * @param None
 214:Core/Src/main.c ****   * @retval None
 215:Core/Src/main.c ****   */
 216:Core/Src/main.c **** static void MX_USART1_UART_Init(void)
 217:Core/Src/main.c **** {
 218:Core/Src/main.c **** 
 219:Core/Src/main.c ****   /* USER CODE BEGIN USART1_Init 0 */
 220:Core/Src/main.c **** 
 221:Core/Src/main.c ****   /* USER CODE END USART1_Init 0 */
 222:Core/Src/main.c **** 
 223:Core/Src/main.c ****   /* USER CODE BEGIN USART1_Init 1 */
 224:Core/Src/main.c **** 
 225:Core/Src/main.c ****   /* USER CODE END USART1_Init 1 */
 226:Core/Src/main.c ****   huart1.Instance = USART1;
 227:Core/Src/main.c ****   huart1.Init.BaudRate = 115200;
 228:Core/Src/main.c ****   huart1.Init.WordLength = UART_WORDLENGTH_8B;
 229:Core/Src/main.c ****   huart1.Init.StopBits = UART_STOPBITS_1;
 230:Core/Src/main.c ****   huart1.Init.Parity = UART_PARITY_NONE;
 231:Core/Src/main.c ****   huart1.Init.Mode = UART_MODE_TX_RX;
 232:Core/Src/main.c ****   huart1.Init.HwFlowCtl = UART_HWCONTROL_NONE;
 233:Core/Src/main.c ****   huart1.Init.OverSampling = UART_OVERSAMPLING_16;
 234:Core/Src/main.c ****   if (HAL_UART_Init(&huart1) != HAL_OK)
 235:Core/Src/main.c ****   {
 236:Core/Src/main.c ****     Error_Handler();
 237:Core/Src/main.c ****   }
 238:Core/Src/main.c ****   /* USER CODE BEGIN USART1_Init 2 */
 239:Core/Src/main.c **** 
 240:Core/Src/main.c ****   /* USER CODE END USART1_Init 2 */
 241:Core/Src/main.c **** 
 242:Core/Src/main.c **** }
 243:Core/Src/main.c **** 
 244:Core/Src/main.c **** /**
 245:Core/Src/main.c ****   * @brief USART2 Initialization Function
 246:Core/Src/main.c ****   * @param None
 247:Core/Src/main.c ****   * @retval None
 248:Core/Src/main.c ****   */
 249:Core/Src/main.c **** static void MX_USART2_UART_Init(void)
 250:Core/Src/main.c **** {
 251:Core/Src/main.c **** 
 252:Core/Src/main.c ****   /* USER CODE BEGIN USART2_Init 0 */
 253:Core/Src/main.c **** 
 254:Core/Src/main.c ****   /* USER CODE END USART2_Init 0 */
 255:Core/Src/main.c **** 
 256:Core/Src/main.c ****   /* USER CODE BEGIN USART2_Init 1 */
 257:Core/Src/main.c **** 
 258:Core/Src/main.c ****   /* USER CODE END USART2_Init 1 */
 259:Core/Src/main.c ****   huart2.Instance = USART2;
 260:Core/Src/main.c ****   huart2.Init.BaudRate = 115200;
 261:Core/Src/main.c ****   huart2.Init.WordLength = UART_WORDLENGTH_8B;
ARM GAS  C:\Users\limak\AppData\Local\Temp\ccxefUlm.s 			page 6


 262:Core/Src/main.c ****   huart2.Init.StopBits = UART_STOPBITS_1;
 263:Core/Src/main.c ****   huart2.Init.Parity = UART_PARITY_NONE;
 264:Core/Src/main.c ****   huart2.Init.Mode = UART_MODE_TX_RX;
 265:Core/Src/main.c ****   huart2.Init.HwFlowCtl = UART_HWCONTROL_NONE;
 266:Core/Src/main.c ****   huart2.Init.OverSampling = UART_OVERSAMPLING_16;
 267:Core/Src/main.c ****   if (HAL_UART_Init(&huart2) != HAL_OK)
 268:Core/Src/main.c ****   {
 269:Core/Src/main.c ****     Error_Handler();
 270:Core/Src/main.c ****   }
 271:Core/Src/main.c ****   /* USER CODE BEGIN USART2_Init 2 */
 272:Core/Src/main.c **** 
 273:Core/Src/main.c ****   /* USER CODE END USART2_Init 2 */
 274:Core/Src/main.c **** 
 275:Core/Src/main.c **** }
 276:Core/Src/main.c **** 
 277:Core/Src/main.c **** /**
 278:Core/Src/main.c ****   * @brief GPIO Initialization Function
 279:Core/Src/main.c ****   * @param None
 280:Core/Src/main.c ****   * @retval None
 281:Core/Src/main.c ****   */
 282:Core/Src/main.c **** static void MX_GPIO_Init(void)
 283:Core/Src/main.c **** {
  26              		.loc 1 283 1 view -0
  27              		.cfi_startproc
  28              		@ args = 0, pretend = 0, frame = 32
  29              		@ frame_needed = 0, uses_anonymous_args = 0
  30 0000 F0B5     		push	{r4, r5, r6, r7, lr}
  31              		.cfi_def_cfa_offset 20
  32              		.cfi_offset 4, -20
  33              		.cfi_offset 5, -16
  34              		.cfi_offset 6, -12
  35              		.cfi_offset 7, -8
  36              		.cfi_offset 14, -4
  37 0002 89B0     		sub	sp, sp, #36
  38              		.cfi_def_cfa_offset 56
 284:Core/Src/main.c ****   GPIO_InitTypeDef GPIO_InitStruct = {0};
  39              		.loc 1 284 3 view .LVU1
  40              		.loc 1 284 20 is_stmt 0 view .LVU2
  41 0004 04AD     		add	r5, sp, #16
  42 0006 0024     		movs	r4, #0
  43 0008 0494     		str	r4, [sp, #16]
  44 000a 0594     		str	r4, [sp, #20]
  45 000c 0694     		str	r4, [sp, #24]
  46 000e 0794     		str	r4, [sp, #28]
 285:Core/Src/main.c ****   /* USER CODE BEGIN MX_GPIO_Init_1 */
 286:Core/Src/main.c **** 
 287:Core/Src/main.c ****   /* USER CODE END MX_GPIO_Init_1 */
 288:Core/Src/main.c **** 
 289:Core/Src/main.c ****   /* GPIO Ports Clock Enable */
 290:Core/Src/main.c ****   __HAL_RCC_GPIOD_CLK_ENABLE();
  47              		.loc 1 290 3 is_stmt 1 view .LVU3
  48              	.LBB4:
  49              		.loc 1 290 3 view .LVU4
  50              		.loc 1 290 3 view .LVU5
  51 0010 214B     		ldr	r3, .L3
  52 0012 9A69     		ldr	r2, [r3, #24]
  53 0014 42F02002 		orr	r2, r2, #32
ARM GAS  C:\Users\limak\AppData\Local\Temp\ccxefUlm.s 			page 7


  54 0018 9A61     		str	r2, [r3, #24]
  55              		.loc 1 290 3 view .LVU6
  56 001a 9A69     		ldr	r2, [r3, #24]
  57 001c 02F02002 		and	r2, r2, #32
  58 0020 0192     		str	r2, [sp, #4]
  59              		.loc 1 290 3 view .LVU7
  60 0022 019A     		ldr	r2, [sp, #4]
  61              	.LBE4:
  62              		.loc 1 290 3 view .LVU8
 291:Core/Src/main.c ****   __HAL_RCC_GPIOA_CLK_ENABLE();
  63              		.loc 1 291 3 view .LVU9
  64              	.LBB5:
  65              		.loc 1 291 3 view .LVU10
  66              		.loc 1 291 3 view .LVU11
  67 0024 9A69     		ldr	r2, [r3, #24]
  68 0026 42F00402 		orr	r2, r2, #4
  69 002a 9A61     		str	r2, [r3, #24]
  70              		.loc 1 291 3 view .LVU12
  71 002c 9A69     		ldr	r2, [r3, #24]
  72 002e 02F00402 		and	r2, r2, #4
  73 0032 0292     		str	r2, [sp, #8]
  74              		.loc 1 291 3 view .LVU13
  75 0034 029A     		ldr	r2, [sp, #8]
  76              	.LBE5:
  77              		.loc 1 291 3 view .LVU14
 292:Core/Src/main.c ****   __HAL_RCC_GPIOB_CLK_ENABLE();
  78              		.loc 1 292 3 view .LVU15
  79              	.LBB6:
  80              		.loc 1 292 3 view .LVU16
  81              		.loc 1 292 3 view .LVU17
  82 0036 9A69     		ldr	r2, [r3, #24]
  83 0038 42F00802 		orr	r2, r2, #8
  84 003c 9A61     		str	r2, [r3, #24]
  85              		.loc 1 292 3 view .LVU18
  86 003e 9B69     		ldr	r3, [r3, #24]
  87 0040 03F00803 		and	r3, r3, #8
  88 0044 0393     		str	r3, [sp, #12]
  89              		.loc 1 292 3 view .LVU19
  90 0046 039B     		ldr	r3, [sp, #12]
  91              	.LBE6:
  92              		.loc 1 292 3 view .LVU20
 293:Core/Src/main.c **** 
 294:Core/Src/main.c ****   /*Configure GPIO pin Output Level */
 295:Core/Src/main.c ****   HAL_GPIO_WritePin(GPIOB, GPIO_PIN_10|GPIO_PIN_11|SW_I2C_SDA_Pin|SW_I2C_SCL_Pin, GPIO_PIN_RESET);
  93              		.loc 1 295 3 view .LVU21
  94 0048 144E     		ldr	r6, .L3+4
  95 004a 2246     		mov	r2, r4
  96 004c 4FF44361 		mov	r1, #3120
  97 0050 3046     		mov	r0, r6
  98 0052 FFF7FEFF 		bl	HAL_GPIO_WritePin
  99              	.LVL0:
 296:Core/Src/main.c **** 
 297:Core/Src/main.c ****   /*Configure GPIO pins : PB10 PB11 */
 298:Core/Src/main.c ****   GPIO_InitStruct.Pin = GPIO_PIN_10|GPIO_PIN_11;
 100              		.loc 1 298 3 view .LVU22
 101              		.loc 1 298 23 is_stmt 0 view .LVU23
 102 0056 4FF44063 		mov	r3, #3072
ARM GAS  C:\Users\limak\AppData\Local\Temp\ccxefUlm.s 			page 8


 103 005a 0493     		str	r3, [sp, #16]
 299:Core/Src/main.c ****   GPIO_InitStruct.Mode = GPIO_MODE_OUTPUT_PP;
 104              		.loc 1 299 3 is_stmt 1 view .LVU24
 105              		.loc 1 299 24 is_stmt 0 view .LVU25
 106 005c 0123     		movs	r3, #1
 107 005e 0593     		str	r3, [sp, #20]
 300:Core/Src/main.c ****   GPIO_InitStruct.Pull = GPIO_NOPULL;
 108              		.loc 1 300 3 is_stmt 1 view .LVU26
 109              		.loc 1 300 24 is_stmt 0 view .LVU27
 110 0060 0694     		str	r4, [sp, #24]
 301:Core/Src/main.c ****   GPIO_InitStruct.Speed = GPIO_SPEED_FREQ_LOW;
 111              		.loc 1 301 3 is_stmt 1 view .LVU28
 112              		.loc 1 301 25 is_stmt 0 view .LVU29
 113 0062 0227     		movs	r7, #2
 114 0064 0797     		str	r7, [sp, #28]
 302:Core/Src/main.c ****   HAL_GPIO_Init(GPIOB, &GPIO_InitStruct);
 115              		.loc 1 302 3 is_stmt 1 view .LVU30
 116 0066 2946     		mov	r1, r5
 117 0068 3046     		mov	r0, r6
 118 006a FFF7FEFF 		bl	HAL_GPIO_Init
 119              	.LVL1:
 303:Core/Src/main.c **** 
 304:Core/Src/main.c ****   /*Configure GPIO pin : PB3 */
 305:Core/Src/main.c ****   GPIO_InitStruct.Pin = GPIO_PIN_3;
 120              		.loc 1 305 3 view .LVU31
 121              		.loc 1 305 23 is_stmt 0 view .LVU32
 122 006e 0823     		movs	r3, #8
 123 0070 0493     		str	r3, [sp, #16]
 306:Core/Src/main.c ****   GPIO_InitStruct.Mode = GPIO_MODE_IT_RISING;
 124              		.loc 1 306 3 is_stmt 1 view .LVU33
 125              		.loc 1 306 24 is_stmt 0 view .LVU34
 126 0072 0B4B     		ldr	r3, .L3+8
 127 0074 0593     		str	r3, [sp, #20]
 307:Core/Src/main.c ****   GPIO_InitStruct.Pull = GPIO_NOPULL;
 128              		.loc 1 307 3 is_stmt 1 view .LVU35
 129              		.loc 1 307 24 is_stmt 0 view .LVU36
 130 0076 0694     		str	r4, [sp, #24]
 308:Core/Src/main.c ****   HAL_GPIO_Init(GPIOB, &GPIO_InitStruct);
 131              		.loc 1 308 3 is_stmt 1 view .LVU37
 132 0078 2946     		mov	r1, r5
 133 007a 3046     		mov	r0, r6
 134 007c FFF7FEFF 		bl	HAL_GPIO_Init
 135              	.LVL2:
 309:Core/Src/main.c **** 
 310:Core/Src/main.c ****   /*Configure GPIO pins : SW_I2C_SDA_Pin SW_I2C_SCL_Pin */
 311:Core/Src/main.c ****   GPIO_InitStruct.Pin = SW_I2C_SDA_Pin|SW_I2C_SCL_Pin;
 136              		.loc 1 311 3 view .LVU38
 137              		.loc 1 311 23 is_stmt 0 view .LVU39
 138 0080 3023     		movs	r3, #48
 139 0082 0493     		str	r3, [sp, #16]
 312:Core/Src/main.c ****   GPIO_InitStruct.Mode = GPIO_MODE_OUTPUT_OD;
 140              		.loc 1 312 3 is_stmt 1 view .LVU40
 141              		.loc 1 312 24 is_stmt 0 view .LVU41
 142 0084 1123     		movs	r3, #17
 143 0086 0593     		str	r3, [sp, #20]
 313:Core/Src/main.c ****   GPIO_InitStruct.Pull = GPIO_NOPULL;
 144              		.loc 1 313 3 is_stmt 1 view .LVU42
ARM GAS  C:\Users\limak\AppData\Local\Temp\ccxefUlm.s 			page 9


 145              		.loc 1 313 24 is_stmt 0 view .LVU43
 146 0088 0694     		str	r4, [sp, #24]
 314:Core/Src/main.c ****   GPIO_InitStruct.Speed = GPIO_SPEED_FREQ_LOW;
 147              		.loc 1 314 3 is_stmt 1 view .LVU44
 148              		.loc 1 314 25 is_stmt 0 view .LVU45
 149 008a 0797     		str	r7, [sp, #28]
 315:Core/Src/main.c ****   HAL_GPIO_Init(GPIOB, &GPIO_InitStruct);
 150              		.loc 1 315 3 is_stmt 1 view .LVU46
 151 008c 2946     		mov	r1, r5
 152 008e 3046     		mov	r0, r6
 153 0090 FFF7FEFF 		bl	HAL_GPIO_Init
 154              	.LVL3:
 316:Core/Src/main.c **** 
 317:Core/Src/main.c ****   /* USER CODE BEGIN MX_GPIO_Init_2 */
 318:Core/Src/main.c **** 
 319:Core/Src/main.c ****   /* USER CODE END MX_GPIO_Init_2 */
 320:Core/Src/main.c **** }
 155              		.loc 1 320 1 is_stmt 0 view .LVU47
 156 0094 09B0     		add	sp, sp, #36
 157              		.cfi_def_cfa_offset 20
 158              		@ sp needed
 159 0096 F0BD     		pop	{r4, r5, r6, r7, pc}
 160              	.L4:
 161              		.align	2
 162              	.L3:
 163 0098 00100240 		.word	1073876992
 164 009c 000C0140 		.word	1073810432
 165 00a0 00001110 		.word	269549568
 166              		.cfi_endproc
 167              	.LFE82:
 169              		.section	.text.MCP3421_ReadRaw,"ax",%progbits
 170              		.align	1
 171              		.global	MCP3421_ReadRaw
 172              		.syntax unified
 173              		.thumb
 174              		.thumb_func
 176              	MCP3421_ReadRaw:
 177              	.LFB74:
  27:Core/Src/main.c ****     uint8_t rx[4];
 178              		.loc 1 27 1 is_stmt 1 view -0
 179              		.cfi_startproc
 180              		@ args = 0, pretend = 0, frame = 8
 181              		@ frame_needed = 0, uses_anonymous_args = 0
 182 0000 30B5     		push	{r4, r5, lr}
 183              		.cfi_def_cfa_offset 12
 184              		.cfi_offset 4, -12
 185              		.cfi_offset 5, -8
 186              		.cfi_offset 14, -4
 187 0002 85B0     		sub	sp, sp, #20
 188              		.cfi_def_cfa_offset 32
  28:Core/Src/main.c ****     
 189              		.loc 1 28 5 view .LVU49
  31:Core/Src/main.c ****     HAL_I2C_Master_Transmit(&hi2c1, MCP3421_ADDR, &config, 1, HAL_MAX_DELAY);
 190              		.loc 1 31 5 view .LVU50
  31:Core/Src/main.c ****     HAL_I2C_Master_Transmit(&hi2c1, MCP3421_ADDR, &config, 1, HAL_MAX_DELAY);
 191              		.loc 1 31 13 is_stmt 0 view .LVU51
 192 0004 9C23     		movs	r3, #156
ARM GAS  C:\Users\limak\AppData\Local\Temp\ccxefUlm.s 			page 10


 193 0006 8DF80B30 		strb	r3, [sp, #11]
  32:Core/Src/main.c **** 
 194              		.loc 1 32 5 is_stmt 1 view .LVU52
 195 000a 124C     		ldr	r4, .L10
 196 000c 4FF0FF35 		mov	r5, #-1
 197 0010 0095     		str	r5, [sp]
 198 0012 0123     		movs	r3, #1
 199 0014 0DF10B02 		add	r2, sp, #11
 200 0018 D021     		movs	r1, #208
 201 001a 2046     		mov	r0, r4
 202 001c FFF7FEFF 		bl	HAL_I2C_Master_Transmit
 203              	.LVL4:
  37:Core/Src/main.c **** 
 204              		.loc 1 37 5 view .LVU53
 205 0020 4FF48770 		mov	r0, #270
 206 0024 FFF7FEFF 		bl	HAL_Delay
 207              	.LVL5:
  39:Core/Src/main.c ****         // Monta o valor de 18 bits com extensão de sinal correta
 208              		.loc 1 39 5 view .LVU54
  39:Core/Src/main.c ****         // Monta o valor de 18 bits com extensão de sinal correta
 209              		.loc 1 39 9 is_stmt 0 view .LVU55
 210 0028 0095     		str	r5, [sp]
 211 002a 0423     		movs	r3, #4
 212 002c 03AA     		add	r2, sp, #12
 213 002e D021     		movs	r1, #208
 214 0030 2046     		mov	r0, r4
 215 0032 FFF7FEFF 		bl	HAL_I2C_Master_Receive
 216              	.LVL6:
  39:Core/Src/main.c ****         // Monta o valor de 18 bits com extensão de sinal correta
 217              		.loc 1 39 8 discriminator 1 view .LVU56
 218 0036 10B1     		cbz	r0, .L9
  45:Core/Src/main.c **** }
 219              		.loc 1 45 12 view .LVU57
 220 0038 0020     		movs	r0, #0
 221              	.L5:
  46:Core/Src/main.c **** 
 222              		.loc 1 46 1 view .LVU58
 223 003a 05B0     		add	sp, sp, #20
 224              		.cfi_remember_state
 225              		.cfi_def_cfa_offset 12
 226              		@ sp needed
 227 003c 30BD     		pop	{r4, r5, pc}
 228              	.L9:
 229              		.cfi_restore_state
 230              	.LBB7:
  42:Core/Src/main.c ****         return raw;
 231              		.loc 1 42 9 is_stmt 1 view .LVU59
  42:Core/Src/main.c ****         return raw;
 232              		.loc 1 42 34 is_stmt 0 view .LVU60
 233 003e 9DF90C30 		ldrsb	r3, [sp, #12]
  42:Core/Src/main.c ****         return raw;
 234              		.loc 1 42 61 view .LVU61
 235 0042 9DF80D00 		ldrb	r0, [sp, #13]	@ zero_extendqisi2
  42:Core/Src/main.c ****         return raw;
 236              		.loc 1 42 65 view .LVU62
 237 0046 0002     		lsls	r0, r0, #8
  42:Core/Src/main.c ****         return raw;
ARM GAS  C:\Users\limak\AppData\Local\Temp\ccxefUlm.s 			page 11


 238              		.loc 1 42 56 view .LVU63
 239 0048 40EA0340 		orr	r0, r0, r3, lsl #16
  42:Core/Src/main.c ****         return raw;
 240              		.loc 1 42 75 view .LVU64
 241 004c 9DF80E30 		ldrb	r3, [sp, #14]	@ zero_extendqisi2
  42:Core/Src/main.c ****         return raw;
 242              		.loc 1 42 17 view .LVU65
 243 0050 1843     		orrs	r0, r0, r3
 244              	.LVL7:
  43:Core/Src/main.c ****     }
 245              		.loc 1 43 9 is_stmt 1 view .LVU66
  43:Core/Src/main.c ****     }
 246              		.loc 1 43 16 is_stmt 0 view .LVU67
 247 0052 F2E7     		b	.L5
 248              	.L11:
 249              		.align	2
 250              	.L10:
 251 0054 00000000 		.word	hi2c1
 252              	.LBE7:
 253              		.cfi_endproc
 254              	.LFE74:
 256              		.section	.text.MCP3421_Soft_ReadRaw,"ax",%progbits
 257              		.align	1
 258              		.global	MCP3421_Soft_ReadRaw
 259              		.syntax unified
 260              		.thumb
 261              		.thumb_func
 263              	MCP3421_Soft_ReadRaw:
 264              	.LFB75:
  48:Core/Src/main.c ****     uint8_t rx[3];
 265              		.loc 1 48 36 is_stmt 1 view -0
 266              		.cfi_startproc
 267              		@ args = 0, pretend = 0, frame = 8
 268              		@ frame_needed = 0, uses_anonymous_args = 0
 269 0000 30B5     		push	{r4, r5, lr}
 270              		.cfi_def_cfa_offset 12
 271              		.cfi_offset 4, -12
 272              		.cfi_offset 5, -8
 273              		.cfi_offset 14, -4
 274 0002 83B0     		sub	sp, sp, #12
 275              		.cfi_def_cfa_offset 24
  49:Core/Src/main.c ****     uint8_t config = 0x9C; // 18 bits, ganho 1, contínuo
 276              		.loc 1 49 5 view .LVU69
  50:Core/Src/main.c **** 
 277              		.loc 1 50 5 view .LVU70
 278              	.LVL8:
  54:Core/Src/main.c ****     I2C_write_byte(config, false, true);
 279              		.loc 1 54 5 view .LVU71
 280 0004 0022     		movs	r2, #0
 281 0006 0121     		movs	r1, #1
 282 0008 D020     		movs	r0, #208
 283 000a FFF7FEFF 		bl	I2C_write_byte
 284              	.LVL9:
  55:Core/Src/main.c **** 
 285              		.loc 1 55 5 view .LVU72
 286 000e 0122     		movs	r2, #1
 287 0010 0021     		movs	r1, #0
ARM GAS  C:\Users\limak\AppData\Local\Temp\ccxefUlm.s 			page 12


 288 0012 9C20     		movs	r0, #156
 289 0014 FFF7FEFF 		bl	I2C_write_byte
 290              	.LVL10:
  58:Core/Src/main.c **** 
 291              		.loc 1 58 5 view .LVU73
 292 0018 4FF48770 		mov	r0, #270
 293 001c FFF7FEFF 		bl	HAL_Delay
 294              	.LVL11:
  62:Core/Src/main.c ****         rx[0] = I2C_read_byte(true, false);  // MSB (com ACK)
 295              		.loc 1 62 5 view .LVU74
  62:Core/Src/main.c ****         rx[0] = I2C_read_byte(true, false);  // MSB (com ACK)
 296              		.loc 1 62 9 is_stmt 0 view .LVU75
 297 0020 0022     		movs	r2, #0
 298 0022 0121     		movs	r1, #1
 299 0024 D120     		movs	r0, #209
 300 0026 FFF7FEFF 		bl	I2C_write_byte
 301              	.LVL12:
  62:Core/Src/main.c ****         rx[0] = I2C_read_byte(true, false);  // MSB (com ACK)
 302              		.loc 1 62 8 discriminator 1 view .LVU76
 303 002a 10B9     		cbnz	r0, .L16
  72:Core/Src/main.c **** }
 304              		.loc 1 72 12 view .LVU77
 305 002c 0020     		movs	r0, #0
 306              	.L12:
  73:Core/Src/main.c **** 
 307              		.loc 1 73 1 view .LVU78
 308 002e 03B0     		add	sp, sp, #12
 309              		.cfi_remember_state
 310              		.cfi_def_cfa_offset 12
 311              		@ sp needed
 312 0030 30BD     		pop	{r4, r5, pc}
 313              	.L16:
 314              		.cfi_restore_state
 315              	.LBB8:
  63:Core/Src/main.c ****         rx[1] = I2C_read_byte(true, false);  // Middle Byte (com ACK)
 316              		.loc 1 63 9 is_stmt 1 view .LVU79
  63:Core/Src/main.c ****         rx[1] = I2C_read_byte(true, false);  // Middle Byte (com ACK)
 317              		.loc 1 63 17 is_stmt 0 view .LVU80
 318 0032 0021     		movs	r1, #0
 319 0034 0120     		movs	r0, #1
 320 0036 FFF7FEFF 		bl	I2C_read_byte
 321              	.LVL13:
 322 003a 0546     		mov	r5, r0
  63:Core/Src/main.c ****         rx[1] = I2C_read_byte(true, false);  // Middle Byte (com ACK)
 323              		.loc 1 63 15 discriminator 1 view .LVU81
 324 003c 8DF80400 		strb	r0, [sp, #4]
  64:Core/Src/main.c ****         rx[2] = I2C_read_byte(false, true);  // LSB (com NACK e STOP)
 325              		.loc 1 64 9 is_stmt 1 view .LVU82
  64:Core/Src/main.c ****         rx[2] = I2C_read_byte(false, true);  // LSB (com NACK e STOP)
 326              		.loc 1 64 17 is_stmt 0 view .LVU83
 327 0040 0021     		movs	r1, #0
 328 0042 0120     		movs	r0, #1
 329 0044 FFF7FEFF 		bl	I2C_read_byte
 330              	.LVL14:
 331 0048 0446     		mov	r4, r0
  64:Core/Src/main.c ****         rx[2] = I2C_read_byte(false, true);  // LSB (com NACK e STOP)
 332              		.loc 1 64 15 discriminator 1 view .LVU84
ARM GAS  C:\Users\limak\AppData\Local\Temp\ccxefUlm.s 			page 13


 333 004a 8DF80500 		strb	r0, [sp, #5]
  65:Core/Src/main.c **** 
 334              		.loc 1 65 9 is_stmt 1 view .LVU85
  65:Core/Src/main.c **** 
 335              		.loc 1 65 17 is_stmt 0 view .LVU86
 336 004e 0121     		movs	r1, #1
 337 0050 0020     		movs	r0, #0
 338 0052 FFF7FEFF 		bl	I2C_read_byte
 339              	.LVL15:
  65:Core/Src/main.c **** 
 340              		.loc 1 65 15 discriminator 1 view .LVU87
 341 0056 8DF80600 		strb	r0, [sp, #6]
  68:Core/Src/main.c ****         return raw;
 342              		.loc 1 68 9 is_stmt 1 view .LVU88
  68:Core/Src/main.c ****         return raw;
 343              		.loc 1 68 34 is_stmt 0 view .LVU89
 344 005a 6DB2     		sxtb	r5, r5
  68:Core/Src/main.c ****         return raw;
 345              		.loc 1 68 65 view .LVU90
 346 005c 2402     		lsls	r4, r4, #8
  68:Core/Src/main.c ****         return raw;
 347              		.loc 1 68 56 view .LVU91
 348 005e 44EA0544 		orr	r4, r4, r5, lsl #16
  68:Core/Src/main.c ****         return raw;
 349              		.loc 1 68 17 view .LVU92
 350 0062 2043     		orrs	r0, r0, r4
 351              	.LVL16:
  69:Core/Src/main.c ****     }
 352              		.loc 1 69 9 is_stmt 1 view .LVU93
  69:Core/Src/main.c ****     }
 353              		.loc 1 69 16 is_stmt 0 view .LVU94
 354 0064 E3E7     		b	.L12
 355              	.LBE8:
 356              		.cfi_endproc
 357              	.LFE75:
 359              		.section	.text.mcpToVoltage,"ax",%progbits
 360              		.align	1
 361              		.global	mcpToVoltage
 362              		.syntax unified
 363              		.thumb
 364              		.thumb_func
 366              	mcpToVoltage:
 367              	.LVL17:
 368              	.LFB76:
  75:Core/Src/main.c ****     int32_t maxCounts;
 369              		.loc 1 75 53 is_stmt 1 view -0
 370              		.cfi_startproc
 371              		@ args = 0, pretend = 0, frame = 0
 372              		@ frame_needed = 0, uses_anonymous_args = 0
  75:Core/Src/main.c ****     int32_t maxCounts;
 373              		.loc 1 75 53 is_stmt 0 view .LVU96
 374 0000 70B5     		push	{r4, r5, r6, lr}
 375              		.cfi_def_cfa_offset 16
 376              		.cfi_offset 4, -16
 377              		.cfi_offset 5, -12
 378              		.cfi_offset 6, -8
 379              		.cfi_offset 14, -4
ARM GAS  C:\Users\limak\AppData\Local\Temp\ccxefUlm.s 			page 14


  76:Core/Src/main.c **** 
 380              		.loc 1 76 5 is_stmt 1 view .LVU97
  78:Core/Src/main.c ****         case 12: maxCounts = 2048; break;
 381              		.loc 1 78 5 view .LVU98
 382 0002 0C39     		subs	r1, r1, #12
 383              	.LVL18:
  78:Core/Src/main.c ****         case 12: maxCounts = 2048; break;
 384              		.loc 1 78 5 is_stmt 0 view .LVU99
 385 0004 0629     		cmp	r1, #6
 386 0006 0ED8     		bhi	.L18
 387 0008 DFE801F0 		tbb	[pc, r1]
 388              	.L20:
 389 000c 04       		.byte	(.L23-.L20)/2
 390 000d 0D       		.byte	(.L18-.L20)/2
 391 000e 24       		.byte	(.L24-.L20)/2
 392 000f 0D       		.byte	(.L18-.L20)/2
 393 0010 07       		.byte	(.L21-.L20)/2
 394 0011 0D       		.byte	(.L18-.L20)/2
 395 0012 0A       		.byte	(.L19-.L20)/2
 396 0013 00       		.p2align 1
 397              	.L23:
 398 0014 4FF40066 		mov	r6, #2048
 399 0018 07E0     		b	.L22
 400              	.L21:
  81:Core/Src/main.c ****         case 18: maxCounts = 131072; break;
 401              		.loc 1 81 18 is_stmt 1 view .LVU100
 402              	.LVL19:
  81:Core/Src/main.c ****         case 18: maxCounts = 131072; break;
 403              		.loc 1 81 37 view .LVU101
  81:Core/Src/main.c ****         case 18: maxCounts = 131072; break;
 404              		.loc 1 81 28 is_stmt 0 view .LVU102
 405 001a 4FF40046 		mov	r6, #32768
  81:Core/Src/main.c ****         case 18: maxCounts = 131072; break;
 406              		.loc 1 81 37 view .LVU103
 407 001e 04E0     		b	.L22
 408              	.LVL20:
 409              	.L19:
  82:Core/Src/main.c ****         default: maxCounts = 131072;
 410              		.loc 1 82 18 is_stmt 1 view .LVU104
  82:Core/Src/main.c ****         default: maxCounts = 131072;
 411              		.loc 1 82 38 view .LVU105
  82:Core/Src/main.c ****         default: maxCounts = 131072;
 412              		.loc 1 82 28 is_stmt 0 view .LVU106
 413 0020 4FF40036 		mov	r6, #131072
  82:Core/Src/main.c ****         default: maxCounts = 131072;
 414              		.loc 1 82 38 view .LVU107
 415 0024 01E0     		b	.L22
 416              	.LVL21:
 417              	.L18:
  83:Core/Src/main.c ****     }
 418              		.loc 1 83 18 is_stmt 1 view .LVU108
  83:Core/Src/main.c ****     }
 419              		.loc 1 83 28 is_stmt 0 view .LVU109
 420 0026 4FF40036 		mov	r6, #131072
 421              	.LVL22:
 422              	.L22:
  86:Core/Src/main.c **** }
ARM GAS  C:\Users\limak\AppData\Local\Temp\ccxefUlm.s 			page 15


 423              		.loc 1 86 5 is_stmt 1 view .LVU110
  86:Core/Src/main.c **** }
 424              		.loc 1 86 17 is_stmt 0 view .LVU111
 425 002a FFF7FEFF 		bl	__aeabi_i2d
 426              	.LVL23:
  86:Core/Src/main.c **** }
 427              		.loc 1 86 17 view .LVU112
 428 002e 0CA3     		adr	r3, .L26
 429 0030 D3E90023 		ldrd	r2, [r3]
 430 0034 FFF7FEFF 		bl	__aeabi_dmul
 431              	.LVL24:
 432 0038 0446     		mov	r4, r0
 433 003a 0D46     		mov	r5, r1
  86:Core/Src/main.c **** }
 434              		.loc 1 86 26 view .LVU113
 435 003c 3046     		mov	r0, r6
 436 003e FFF7FEFF 		bl	__aeabi_i2d
 437              	.LVL25:
 438 0042 0246     		mov	r2, r0
 439 0044 0B46     		mov	r3, r1
 440 0046 2046     		mov	r0, r4
 441 0048 2946     		mov	r1, r5
 442 004a FFF7FEFF 		bl	__aeabi_ddiv
 443              	.LVL26:
 444 004e FFF7FEFF 		bl	__aeabi_d2f
 445              	.LVL27:
  87:Core/Src/main.c **** 
 446              		.loc 1 87 1 view .LVU114
 447 0052 70BD     		pop	{r4, r5, r6, pc}
 448              	.LVL28:
 449              	.L24:
  80:Core/Src/main.c ****         case 16: maxCounts = 32768; break;
 450              		.loc 1 80 28 view .LVU115
 451 0054 4FF40056 		mov	r6, #8192
 452 0058 E7E7     		b	.L22
 453              	.L27:
 454 005a 00BFAFF3 		.align	3
 454      0080
 455              	.L26:
 456 0060 FCA9F1D2 		.word	-755914244
 457 0064 4D620040 		.word	1073766989
 458              		.cfi_endproc
 459              	.LFE76:
 461              		.section	.text.StartDefaultTask,"ax",%progbits
 462              		.align	1
 463              		.global	StartDefaultTask
 464              		.syntax unified
 465              		.thumb
 466              		.thumb_func
 468              	StartDefaultTask:
 469              	.LFB83:
 321:Core/Src/main.c **** 
 322:Core/Src/main.c **** /* USER CODE BEGIN 4 */
 323:Core/Src/main.c **** 
 324:Core/Src/main.c **** /* USER CODE END 4 */
 325:Core/Src/main.c **** 
 326:Core/Src/main.c **** /* USER CODE BEGIN Header_StartDefaultTask */
ARM GAS  C:\Users\limak\AppData\Local\Temp\ccxefUlm.s 			page 16


 327:Core/Src/main.c **** /**
 328:Core/Src/main.c ****   * @brief  Function implementing the defaultTask thread.
 329:Core/Src/main.c ****   * @param  argument: Not used
 330:Core/Src/main.c ****   * @retval None
 331:Core/Src/main.c ****   */
 332:Core/Src/main.c **** /* USER CODE END Header_StartDefaultTask */
 333:Core/Src/main.c **** void StartDefaultTask(void const * argument)
 334:Core/Src/main.c **** {
 470              		.loc 1 334 1 is_stmt 1 view -0
 471              		.cfi_startproc
 472              		@ Volatile: function does not return.
 473              		@ args = 0, pretend = 0, frame = 0
 474              		@ frame_needed = 0, uses_anonymous_args = 0
 475              	.LVL29:
 476              		.loc 1 334 1 is_stmt 0 view .LVU117
 477 0000 08B5     		push	{r3, lr}
 478              		.cfi_def_cfa_offset 8
 479              		.cfi_offset 3, -8
 480              		.cfi_offset 14, -4
 481              	.LVL30:
 482              	.L29:
 335:Core/Src/main.c ****   /* USER CODE BEGIN 5 */
 336:Core/Src/main.c ****   /* Infinite loop */
 337:Core/Src/main.c ****   for(;;)
 483              		.loc 1 337 3 is_stmt 1 view .LVU118
 338:Core/Src/main.c ****   {
 339:Core/Src/main.c ****     osDelay(1);
 484              		.loc 1 339 5 discriminator 1 view .LVU119
 485 0002 0120     		movs	r0, #1
 486 0004 FFF7FEFF 		bl	osDelay
 487              	.LVL31:
 337:Core/Src/main.c ****   {
 488              		.loc 1 337 3 view .LVU120
 489 0008 FBE7     		b	.L29
 490              		.cfi_endproc
 491              	.LFE83:
 493              		.section	.text.HAL_TIM_PeriodElapsedCallback,"ax",%progbits
 494              		.align	1
 495              		.global	HAL_TIM_PeriodElapsedCallback
 496              		.syntax unified
 497              		.thumb
 498              		.thumb_func
 500              	HAL_TIM_PeriodElapsedCallback:
 501              	.LVL32:
 502              	.LFB84:
 340:Core/Src/main.c ****   }
 341:Core/Src/main.c ****   /* USER CODE END 5 */
 342:Core/Src/main.c **** }
 343:Core/Src/main.c **** 
 344:Core/Src/main.c **** /**
 345:Core/Src/main.c ****   * @brief  Period elapsed callback in non blocking mode
 346:Core/Src/main.c ****   * @note   This function is called  when TIM1 interrupt took place, inside
 347:Core/Src/main.c ****   * HAL_TIM_IRQHandler(). It makes a direct call to HAL_IncTick() to increment
 348:Core/Src/main.c ****   * a global variable "uwTick" used as application time base.
 349:Core/Src/main.c ****   * @param  htim : TIM handle
 350:Core/Src/main.c ****   * @retval None
 351:Core/Src/main.c ****   */
ARM GAS  C:\Users\limak\AppData\Local\Temp\ccxefUlm.s 			page 17


 352:Core/Src/main.c **** void HAL_TIM_PeriodElapsedCallback(TIM_HandleTypeDef *htim)
 353:Core/Src/main.c **** {
 503              		.loc 1 353 1 view -0
 504              		.cfi_startproc
 505              		@ args = 0, pretend = 0, frame = 0
 506              		@ frame_needed = 0, uses_anonymous_args = 0
 507              		.loc 1 353 1 is_stmt 0 view .LVU122
 508 0000 08B5     		push	{r3, lr}
 509              		.cfi_def_cfa_offset 8
 510              		.cfi_offset 3, -8
 511              		.cfi_offset 14, -4
 354:Core/Src/main.c ****   /* USER CODE BEGIN Callback 0 */
 355:Core/Src/main.c **** 
 356:Core/Src/main.c ****   /* USER CODE END Callback 0 */
 357:Core/Src/main.c ****   if (htim->Instance == TIM1)
 512              		.loc 1 357 3 is_stmt 1 view .LVU123
 513              		.loc 1 357 11 is_stmt 0 view .LVU124
 514 0002 0268     		ldr	r2, [r0]
 515              		.loc 1 357 6 view .LVU125
 516 0004 034B     		ldr	r3, .L35
 517 0006 9A42     		cmp	r2, r3
 518 0008 00D0     		beq	.L34
 519              	.LVL33:
 520              	.L31:
 358:Core/Src/main.c ****   {
 359:Core/Src/main.c ****     HAL_IncTick();
 360:Core/Src/main.c ****   }
 361:Core/Src/main.c ****   /* USER CODE BEGIN Callback 1 */
 362:Core/Src/main.c **** 
 363:Core/Src/main.c ****   /* USER CODE END Callback 1 */
 364:Core/Src/main.c **** }
 521              		.loc 1 364 1 view .LVU126
 522 000a 08BD     		pop	{r3, pc}
 523              	.LVL34:
 524              	.L34:
 359:Core/Src/main.c ****   }
 525              		.loc 1 359 5 is_stmt 1 view .LVU127
 526 000c FFF7FEFF 		bl	HAL_IncTick
 527              	.LVL35:
 528              		.loc 1 364 1 is_stmt 0 view .LVU128
 529 0010 FBE7     		b	.L31
 530              	.L36:
 531 0012 00BF     		.align	2
 532              	.L35:
 533 0014 002C0140 		.word	1073818624
 534              		.cfi_endproc
 535              	.LFE84:
 537              		.section	.text.Error_Handler,"ax",%progbits
 538              		.align	1
 539              		.global	Error_Handler
 540              		.syntax unified
 541              		.thumb
 542              		.thumb_func
 544              	Error_Handler:
 545              	.LFB85:
 365:Core/Src/main.c **** 
 366:Core/Src/main.c **** /**
ARM GAS  C:\Users\limak\AppData\Local\Temp\ccxefUlm.s 			page 18


 367:Core/Src/main.c ****   * @brief  This function is executed in case of error occurrence.
 368:Core/Src/main.c ****   * @retval None
 369:Core/Src/main.c ****   */
 370:Core/Src/main.c **** void Error_Handler(void)
 371:Core/Src/main.c **** {
 546              		.loc 1 371 1 is_stmt 1 view -0
 547              		.cfi_startproc
 548              		@ Volatile: function does not return.
 549              		@ args = 0, pretend = 0, frame = 0
 550              		@ frame_needed = 0, uses_anonymous_args = 0
 551              		@ link register save eliminated.
 372:Core/Src/main.c ****   /* USER CODE BEGIN Error_Handler_Debug */
 373:Core/Src/main.c ****   /* User can add his own implementation to report the HAL error return state */
 374:Core/Src/main.c ****   __disable_irq();
 552              		.loc 1 374 3 view .LVU130
 553              	.LBB9:
 554              	.LBI9:
 555              		.file 2 "Drivers/CMSIS/Include/cmsis_gcc.h"
   1:Drivers/CMSIS/Include/cmsis_gcc.h **** /**************************************************************************//**
   2:Drivers/CMSIS/Include/cmsis_gcc.h ****  * @file     cmsis_gcc.h
   3:Drivers/CMSIS/Include/cmsis_gcc.h ****  * @brief    CMSIS compiler GCC header file
   4:Drivers/CMSIS/Include/cmsis_gcc.h ****  * @version  V5.0.4
   5:Drivers/CMSIS/Include/cmsis_gcc.h ****  * @date     09. April 2018
   6:Drivers/CMSIS/Include/cmsis_gcc.h ****  ******************************************************************************/
   7:Drivers/CMSIS/Include/cmsis_gcc.h **** /*
   8:Drivers/CMSIS/Include/cmsis_gcc.h ****  * Copyright (c) 2009-2018 Arm Limited. All rights reserved.
   9:Drivers/CMSIS/Include/cmsis_gcc.h ****  *
  10:Drivers/CMSIS/Include/cmsis_gcc.h ****  * SPDX-License-Identifier: Apache-2.0
  11:Drivers/CMSIS/Include/cmsis_gcc.h ****  *
  12:Drivers/CMSIS/Include/cmsis_gcc.h ****  * Licensed under the Apache License, Version 2.0 (the License); you may
  13:Drivers/CMSIS/Include/cmsis_gcc.h ****  * not use this file except in compliance with the License.
  14:Drivers/CMSIS/Include/cmsis_gcc.h ****  * You may obtain a copy of the License at
  15:Drivers/CMSIS/Include/cmsis_gcc.h ****  *
  16:Drivers/CMSIS/Include/cmsis_gcc.h ****  * www.apache.org/licenses/LICENSE-2.0
  17:Drivers/CMSIS/Include/cmsis_gcc.h ****  *
  18:Drivers/CMSIS/Include/cmsis_gcc.h ****  * Unless required by applicable law or agreed to in writing, software
  19:Drivers/CMSIS/Include/cmsis_gcc.h ****  * distributed under the License is distributed on an AS IS BASIS, WITHOUT
  20:Drivers/CMSIS/Include/cmsis_gcc.h ****  * WARRANTIES OR CONDITIONS OF ANY KIND, either express or implied.
  21:Drivers/CMSIS/Include/cmsis_gcc.h ****  * See the License for the specific language governing permissions and
  22:Drivers/CMSIS/Include/cmsis_gcc.h ****  * limitations under the License.
  23:Drivers/CMSIS/Include/cmsis_gcc.h ****  */
  24:Drivers/CMSIS/Include/cmsis_gcc.h **** 
  25:Drivers/CMSIS/Include/cmsis_gcc.h **** #ifndef __CMSIS_GCC_H
  26:Drivers/CMSIS/Include/cmsis_gcc.h **** #define __CMSIS_GCC_H
  27:Drivers/CMSIS/Include/cmsis_gcc.h **** 
  28:Drivers/CMSIS/Include/cmsis_gcc.h **** /* ignore some GCC warnings */
  29:Drivers/CMSIS/Include/cmsis_gcc.h **** #pragma GCC diagnostic push
  30:Drivers/CMSIS/Include/cmsis_gcc.h **** #pragma GCC diagnostic ignored "-Wsign-conversion"
  31:Drivers/CMSIS/Include/cmsis_gcc.h **** #pragma GCC diagnostic ignored "-Wconversion"
  32:Drivers/CMSIS/Include/cmsis_gcc.h **** #pragma GCC diagnostic ignored "-Wunused-parameter"
  33:Drivers/CMSIS/Include/cmsis_gcc.h **** 
  34:Drivers/CMSIS/Include/cmsis_gcc.h **** /* Fallback for __has_builtin */
  35:Drivers/CMSIS/Include/cmsis_gcc.h **** #ifndef __has_builtin
  36:Drivers/CMSIS/Include/cmsis_gcc.h ****   #define __has_builtin(x) (0)
  37:Drivers/CMSIS/Include/cmsis_gcc.h **** #endif
  38:Drivers/CMSIS/Include/cmsis_gcc.h **** 
  39:Drivers/CMSIS/Include/cmsis_gcc.h **** /* CMSIS compiler specific defines */
ARM GAS  C:\Users\limak\AppData\Local\Temp\ccxefUlm.s 			page 19


  40:Drivers/CMSIS/Include/cmsis_gcc.h **** #ifndef   __ASM
  41:Drivers/CMSIS/Include/cmsis_gcc.h ****   #define __ASM                                  __asm
  42:Drivers/CMSIS/Include/cmsis_gcc.h **** #endif
  43:Drivers/CMSIS/Include/cmsis_gcc.h **** #ifndef   __INLINE
  44:Drivers/CMSIS/Include/cmsis_gcc.h ****   #define __INLINE                               inline
  45:Drivers/CMSIS/Include/cmsis_gcc.h **** #endif
  46:Drivers/CMSIS/Include/cmsis_gcc.h **** #ifndef   __STATIC_INLINE
  47:Drivers/CMSIS/Include/cmsis_gcc.h ****   #define __STATIC_INLINE                        static inline
  48:Drivers/CMSIS/Include/cmsis_gcc.h **** #endif
  49:Drivers/CMSIS/Include/cmsis_gcc.h **** #ifndef   __STATIC_FORCEINLINE                 
  50:Drivers/CMSIS/Include/cmsis_gcc.h ****   #define __STATIC_FORCEINLINE                   __attribute__((always_inline)) static inline
  51:Drivers/CMSIS/Include/cmsis_gcc.h **** #endif                                           
  52:Drivers/CMSIS/Include/cmsis_gcc.h **** #ifndef   __NO_RETURN
  53:Drivers/CMSIS/Include/cmsis_gcc.h ****   #define __NO_RETURN                            __attribute__((__noreturn__))
  54:Drivers/CMSIS/Include/cmsis_gcc.h **** #endif
  55:Drivers/CMSIS/Include/cmsis_gcc.h **** #ifndef   __USED
  56:Drivers/CMSIS/Include/cmsis_gcc.h ****   #define __USED                                 __attribute__((used))
  57:Drivers/CMSIS/Include/cmsis_gcc.h **** #endif
  58:Drivers/CMSIS/Include/cmsis_gcc.h **** #ifndef   __WEAK
  59:Drivers/CMSIS/Include/cmsis_gcc.h ****   #define __WEAK                                 __attribute__((weak))
  60:Drivers/CMSIS/Include/cmsis_gcc.h **** #endif
  61:Drivers/CMSIS/Include/cmsis_gcc.h **** #ifndef   __PACKED
  62:Drivers/CMSIS/Include/cmsis_gcc.h ****   #define __PACKED                               __attribute__((packed, aligned(1)))
  63:Drivers/CMSIS/Include/cmsis_gcc.h **** #endif
  64:Drivers/CMSIS/Include/cmsis_gcc.h **** #ifndef   __PACKED_STRUCT
  65:Drivers/CMSIS/Include/cmsis_gcc.h ****   #define __PACKED_STRUCT                        struct __attribute__((packed, aligned(1)))
  66:Drivers/CMSIS/Include/cmsis_gcc.h **** #endif
  67:Drivers/CMSIS/Include/cmsis_gcc.h **** #ifndef   __PACKED_UNION
  68:Drivers/CMSIS/Include/cmsis_gcc.h ****   #define __PACKED_UNION                         union __attribute__((packed, aligned(1)))
  69:Drivers/CMSIS/Include/cmsis_gcc.h **** #endif
  70:Drivers/CMSIS/Include/cmsis_gcc.h **** #ifndef   __UNALIGNED_UINT32        /* deprecated */
  71:Drivers/CMSIS/Include/cmsis_gcc.h ****   #pragma GCC diagnostic push
  72:Drivers/CMSIS/Include/cmsis_gcc.h ****   #pragma GCC diagnostic ignored "-Wpacked"
  73:Drivers/CMSIS/Include/cmsis_gcc.h ****   #pragma GCC diagnostic ignored "-Wattributes"
  74:Drivers/CMSIS/Include/cmsis_gcc.h ****   struct __attribute__((packed)) T_UINT32 { uint32_t v; };
  75:Drivers/CMSIS/Include/cmsis_gcc.h ****   #pragma GCC diagnostic pop
  76:Drivers/CMSIS/Include/cmsis_gcc.h ****   #define __UNALIGNED_UINT32(x)                  (((struct T_UINT32 *)(x))->v)
  77:Drivers/CMSIS/Include/cmsis_gcc.h **** #endif
  78:Drivers/CMSIS/Include/cmsis_gcc.h **** #ifndef   __UNALIGNED_UINT16_WRITE
  79:Drivers/CMSIS/Include/cmsis_gcc.h ****   #pragma GCC diagnostic push
  80:Drivers/CMSIS/Include/cmsis_gcc.h ****   #pragma GCC diagnostic ignored "-Wpacked"
  81:Drivers/CMSIS/Include/cmsis_gcc.h ****   #pragma GCC diagnostic ignored "-Wattributes"
  82:Drivers/CMSIS/Include/cmsis_gcc.h ****   __PACKED_STRUCT T_UINT16_WRITE { uint16_t v; };
  83:Drivers/CMSIS/Include/cmsis_gcc.h ****   #pragma GCC diagnostic pop
  84:Drivers/CMSIS/Include/cmsis_gcc.h ****   #define __UNALIGNED_UINT16_WRITE(addr, val)    (void)((((struct T_UINT16_WRITE *)(void *)(addr))-
  85:Drivers/CMSIS/Include/cmsis_gcc.h **** #endif
  86:Drivers/CMSIS/Include/cmsis_gcc.h **** #ifndef   __UNALIGNED_UINT16_READ
  87:Drivers/CMSIS/Include/cmsis_gcc.h ****   #pragma GCC diagnostic push
  88:Drivers/CMSIS/Include/cmsis_gcc.h ****   #pragma GCC diagnostic ignored "-Wpacked"
  89:Drivers/CMSIS/Include/cmsis_gcc.h ****   #pragma GCC diagnostic ignored "-Wattributes"
  90:Drivers/CMSIS/Include/cmsis_gcc.h ****   __PACKED_STRUCT T_UINT16_READ { uint16_t v; };
  91:Drivers/CMSIS/Include/cmsis_gcc.h ****   #pragma GCC diagnostic pop
  92:Drivers/CMSIS/Include/cmsis_gcc.h ****   #define __UNALIGNED_UINT16_READ(addr)          (((const struct T_UINT16_READ *)(const void *)(add
  93:Drivers/CMSIS/Include/cmsis_gcc.h **** #endif
  94:Drivers/CMSIS/Include/cmsis_gcc.h **** #ifndef   __UNALIGNED_UINT32_WRITE
  95:Drivers/CMSIS/Include/cmsis_gcc.h ****   #pragma GCC diagnostic push
  96:Drivers/CMSIS/Include/cmsis_gcc.h ****   #pragma GCC diagnostic ignored "-Wpacked"
ARM GAS  C:\Users\limak\AppData\Local\Temp\ccxefUlm.s 			page 20


  97:Drivers/CMSIS/Include/cmsis_gcc.h ****   #pragma GCC diagnostic ignored "-Wattributes"
  98:Drivers/CMSIS/Include/cmsis_gcc.h ****   __PACKED_STRUCT T_UINT32_WRITE { uint32_t v; };
  99:Drivers/CMSIS/Include/cmsis_gcc.h ****   #pragma GCC diagnostic pop
 100:Drivers/CMSIS/Include/cmsis_gcc.h ****   #define __UNALIGNED_UINT32_WRITE(addr, val)    (void)((((struct T_UINT32_WRITE *)(void *)(addr))-
 101:Drivers/CMSIS/Include/cmsis_gcc.h **** #endif
 102:Drivers/CMSIS/Include/cmsis_gcc.h **** #ifndef   __UNALIGNED_UINT32_READ
 103:Drivers/CMSIS/Include/cmsis_gcc.h ****   #pragma GCC diagnostic push
 104:Drivers/CMSIS/Include/cmsis_gcc.h ****   #pragma GCC diagnostic ignored "-Wpacked"
 105:Drivers/CMSIS/Include/cmsis_gcc.h ****   #pragma GCC diagnostic ignored "-Wattributes"
 106:Drivers/CMSIS/Include/cmsis_gcc.h ****   __PACKED_STRUCT T_UINT32_READ { uint32_t v; };
 107:Drivers/CMSIS/Include/cmsis_gcc.h ****   #pragma GCC diagnostic pop
 108:Drivers/CMSIS/Include/cmsis_gcc.h ****   #define __UNALIGNED_UINT32_READ(addr)          (((const struct T_UINT32_READ *)(const void *)(add
 109:Drivers/CMSIS/Include/cmsis_gcc.h **** #endif
 110:Drivers/CMSIS/Include/cmsis_gcc.h **** #ifndef   __ALIGNED
 111:Drivers/CMSIS/Include/cmsis_gcc.h ****   #define __ALIGNED(x)                           __attribute__((aligned(x)))
 112:Drivers/CMSIS/Include/cmsis_gcc.h **** #endif
 113:Drivers/CMSIS/Include/cmsis_gcc.h **** #ifndef   __RESTRICT
 114:Drivers/CMSIS/Include/cmsis_gcc.h ****   #define __RESTRICT                             __restrict
 115:Drivers/CMSIS/Include/cmsis_gcc.h **** #endif
 116:Drivers/CMSIS/Include/cmsis_gcc.h **** 
 117:Drivers/CMSIS/Include/cmsis_gcc.h **** 
 118:Drivers/CMSIS/Include/cmsis_gcc.h **** /* ###########################  Core Function Access  ########################### */
 119:Drivers/CMSIS/Include/cmsis_gcc.h **** /** \ingroup  CMSIS_Core_FunctionInterface
 120:Drivers/CMSIS/Include/cmsis_gcc.h ****     \defgroup CMSIS_Core_RegAccFunctions CMSIS Core Register Access Functions
 121:Drivers/CMSIS/Include/cmsis_gcc.h ****   @{
 122:Drivers/CMSIS/Include/cmsis_gcc.h ****  */
 123:Drivers/CMSIS/Include/cmsis_gcc.h **** 
 124:Drivers/CMSIS/Include/cmsis_gcc.h **** /**
 125:Drivers/CMSIS/Include/cmsis_gcc.h ****   \brief   Enable IRQ Interrupts
 126:Drivers/CMSIS/Include/cmsis_gcc.h ****   \details Enables IRQ interrupts by clearing the I-bit in the CPSR.
 127:Drivers/CMSIS/Include/cmsis_gcc.h ****            Can only be executed in Privileged modes.
 128:Drivers/CMSIS/Include/cmsis_gcc.h ****  */
 129:Drivers/CMSIS/Include/cmsis_gcc.h **** __STATIC_FORCEINLINE void __enable_irq(void)
 130:Drivers/CMSIS/Include/cmsis_gcc.h **** {
 131:Drivers/CMSIS/Include/cmsis_gcc.h ****   __ASM volatile ("cpsie i" : : : "memory");
 132:Drivers/CMSIS/Include/cmsis_gcc.h **** }
 133:Drivers/CMSIS/Include/cmsis_gcc.h **** 
 134:Drivers/CMSIS/Include/cmsis_gcc.h **** 
 135:Drivers/CMSIS/Include/cmsis_gcc.h **** /**
 136:Drivers/CMSIS/Include/cmsis_gcc.h ****   \brief   Disable IRQ Interrupts
 137:Drivers/CMSIS/Include/cmsis_gcc.h ****   \details Disables IRQ interrupts by setting the I-bit in the CPSR.
 138:Drivers/CMSIS/Include/cmsis_gcc.h ****            Can only be executed in Privileged modes.
 139:Drivers/CMSIS/Include/cmsis_gcc.h ****  */
 140:Drivers/CMSIS/Include/cmsis_gcc.h **** __STATIC_FORCEINLINE void __disable_irq(void)
 556              		.loc 2 140 27 view .LVU131
 557              	.LBB10:
 141:Drivers/CMSIS/Include/cmsis_gcc.h **** {
 142:Drivers/CMSIS/Include/cmsis_gcc.h ****   __ASM volatile ("cpsid i" : : : "memory");
 558              		.loc 2 142 3 view .LVU132
 559              		.syntax unified
 560              	@ 142 "Drivers/CMSIS/Include/cmsis_gcc.h" 1
 561 0000 72B6     		cpsid i
 562              	@ 0 "" 2
 563              		.thumb
 564              		.syntax unified
 565              	.L38:
 566              	.LBE10:
ARM GAS  C:\Users\limak\AppData\Local\Temp\ccxefUlm.s 			page 21


 567              	.LBE9:
 375:Core/Src/main.c ****   while (1)
 568              		.loc 1 375 3 view .LVU133
 376:Core/Src/main.c ****   {
 377:Core/Src/main.c ****   }
 569              		.loc 1 377 3 view .LVU134
 375:Core/Src/main.c ****   while (1)
 570              		.loc 1 375 9 view .LVU135
 571 0002 FEE7     		b	.L38
 572              		.cfi_endproc
 573              	.LFE85:
 575              		.section	.text.MX_I2C1_Init,"ax",%progbits
 576              		.align	1
 577              		.syntax unified
 578              		.thumb
 579              		.thumb_func
 581              	MX_I2C1_Init:
 582              	.LFB79:
 183:Core/Src/main.c **** 
 583              		.loc 1 183 1 view -0
 584              		.cfi_startproc
 585              		@ args = 0, pretend = 0, frame = 0
 586              		@ frame_needed = 0, uses_anonymous_args = 0
 587 0000 08B5     		push	{r3, lr}
 588              		.cfi_def_cfa_offset 8
 589              		.cfi_offset 3, -8
 590              		.cfi_offset 14, -4
 192:Core/Src/main.c ****   hi2c1.Init.ClockSpeed = 100000;
 591              		.loc 1 192 3 view .LVU137
 192:Core/Src/main.c ****   hi2c1.Init.ClockSpeed = 100000;
 592              		.loc 1 192 18 is_stmt 0 view .LVU138
 593 0002 0A48     		ldr	r0, .L43
 594 0004 0A4B     		ldr	r3, .L43+4
 595 0006 0360     		str	r3, [r0]
 193:Core/Src/main.c ****   hi2c1.Init.DutyCycle = I2C_DUTYCYCLE_2;
 596              		.loc 1 193 3 is_stmt 1 view .LVU139
 193:Core/Src/main.c ****   hi2c1.Init.DutyCycle = I2C_DUTYCYCLE_2;
 597              		.loc 1 193 25 is_stmt 0 view .LVU140
 598 0008 0A4B     		ldr	r3, .L43+8
 599 000a 4360     		str	r3, [r0, #4]
 194:Core/Src/main.c ****   hi2c1.Init.OwnAddress1 = 0;
 600              		.loc 1 194 3 is_stmt 1 view .LVU141
 194:Core/Src/main.c ****   hi2c1.Init.OwnAddress1 = 0;
 601              		.loc 1 194 24 is_stmt 0 view .LVU142
 602 000c 0023     		movs	r3, #0
 603 000e 8360     		str	r3, [r0, #8]
 195:Core/Src/main.c ****   hi2c1.Init.AddressingMode = I2C_ADDRESSINGMODE_7BIT;
 604              		.loc 1 195 3 is_stmt 1 view .LVU143
 195:Core/Src/main.c ****   hi2c1.Init.AddressingMode = I2C_ADDRESSINGMODE_7BIT;
 605              		.loc 1 195 26 is_stmt 0 view .LVU144
 606 0010 C360     		str	r3, [r0, #12]
 196:Core/Src/main.c ****   hi2c1.Init.DualAddressMode = I2C_DUALADDRESS_DISABLE;
 607              		.loc 1 196 3 is_stmt 1 view .LVU145
 196:Core/Src/main.c ****   hi2c1.Init.DualAddressMode = I2C_DUALADDRESS_DISABLE;
 608              		.loc 1 196 29 is_stmt 0 view .LVU146
 609 0012 4FF48042 		mov	r2, #16384
 610 0016 0261     		str	r2, [r0, #16]
ARM GAS  C:\Users\limak\AppData\Local\Temp\ccxefUlm.s 			page 22


 197:Core/Src/main.c ****   hi2c1.Init.OwnAddress2 = 0;
 611              		.loc 1 197 3 is_stmt 1 view .LVU147
 197:Core/Src/main.c ****   hi2c1.Init.OwnAddress2 = 0;
 612              		.loc 1 197 30 is_stmt 0 view .LVU148
 613 0018 4361     		str	r3, [r0, #20]
 198:Core/Src/main.c ****   hi2c1.Init.GeneralCallMode = I2C_GENERALCALL_DISABLE;
 614              		.loc 1 198 3 is_stmt 1 view .LVU149
 198:Core/Src/main.c ****   hi2c1.Init.GeneralCallMode = I2C_GENERALCALL_DISABLE;
 615              		.loc 1 198 26 is_stmt 0 view .LVU150
 616 001a 8361     		str	r3, [r0, #24]
 199:Core/Src/main.c ****   hi2c1.Init.NoStretchMode = I2C_NOSTRETCH_DISABLE;
 617              		.loc 1 199 3 is_stmt 1 view .LVU151
 199:Core/Src/main.c ****   hi2c1.Init.NoStretchMode = I2C_NOSTRETCH_DISABLE;
 618              		.loc 1 199 30 is_stmt 0 view .LVU152
 619 001c C361     		str	r3, [r0, #28]
 200:Core/Src/main.c ****   if (HAL_I2C_Init(&hi2c1) != HAL_OK)
 620              		.loc 1 200 3 is_stmt 1 view .LVU153
 200:Core/Src/main.c ****   if (HAL_I2C_Init(&hi2c1) != HAL_OK)
 621              		.loc 1 200 28 is_stmt 0 view .LVU154
 622 001e 0362     		str	r3, [r0, #32]
 201:Core/Src/main.c ****   {
 623              		.loc 1 201 3 is_stmt 1 view .LVU155
 201:Core/Src/main.c ****   {
 624              		.loc 1 201 7 is_stmt 0 view .LVU156
 625 0020 FFF7FEFF 		bl	HAL_I2C_Init
 626              	.LVL36:
 201:Core/Src/main.c ****   {
 627              		.loc 1 201 6 discriminator 1 view .LVU157
 628 0024 00B9     		cbnz	r0, .L42
 209:Core/Src/main.c **** 
 629              		.loc 1 209 1 view .LVU158
 630 0026 08BD     		pop	{r3, pc}
 631              	.L42:
 203:Core/Src/main.c ****   }
 632              		.loc 1 203 5 is_stmt 1 view .LVU159
 633 0028 FFF7FEFF 		bl	Error_Handler
 634              	.LVL37:
 635              	.L44:
 636              		.align	2
 637              	.L43:
 638 002c 00000000 		.word	hi2c1
 639 0030 00540040 		.word	1073763328
 640 0034 A0860100 		.word	100000
 641              		.cfi_endproc
 642              	.LFE79:
 644              		.section	.text.MX_USART1_UART_Init,"ax",%progbits
 645              		.align	1
 646              		.syntax unified
 647              		.thumb
 648              		.thumb_func
 650              	MX_USART1_UART_Init:
 651              	.LFB80:
 217:Core/Src/main.c **** 
 652              		.loc 1 217 1 view -0
 653              		.cfi_startproc
 654              		@ args = 0, pretend = 0, frame = 0
 655              		@ frame_needed = 0, uses_anonymous_args = 0
ARM GAS  C:\Users\limak\AppData\Local\Temp\ccxefUlm.s 			page 23


 656 0000 08B5     		push	{r3, lr}
 657              		.cfi_def_cfa_offset 8
 658              		.cfi_offset 3, -8
 659              		.cfi_offset 14, -4
 226:Core/Src/main.c ****   huart1.Init.BaudRate = 115200;
 660              		.loc 1 226 3 view .LVU161
 226:Core/Src/main.c ****   huart1.Init.BaudRate = 115200;
 661              		.loc 1 226 19 is_stmt 0 view .LVU162
 662 0002 0A48     		ldr	r0, .L49
 663 0004 0A4B     		ldr	r3, .L49+4
 664 0006 0360     		str	r3, [r0]
 227:Core/Src/main.c ****   huart1.Init.WordLength = UART_WORDLENGTH_8B;
 665              		.loc 1 227 3 is_stmt 1 view .LVU163
 227:Core/Src/main.c ****   huart1.Init.WordLength = UART_WORDLENGTH_8B;
 666              		.loc 1 227 24 is_stmt 0 view .LVU164
 667 0008 4FF4E133 		mov	r3, #115200
 668 000c 4360     		str	r3, [r0, #4]
 228:Core/Src/main.c ****   huart1.Init.StopBits = UART_STOPBITS_1;
 669              		.loc 1 228 3 is_stmt 1 view .LVU165
 228:Core/Src/main.c ****   huart1.Init.StopBits = UART_STOPBITS_1;
 670              		.loc 1 228 26 is_stmt 0 view .LVU166
 671 000e 0023     		movs	r3, #0
 672 0010 8360     		str	r3, [r0, #8]
 229:Core/Src/main.c ****   huart1.Init.Parity = UART_PARITY_NONE;
 673              		.loc 1 229 3 is_stmt 1 view .LVU167
 229:Core/Src/main.c ****   huart1.Init.Parity = UART_PARITY_NONE;
 674              		.loc 1 229 24 is_stmt 0 view .LVU168
 675 0012 C360     		str	r3, [r0, #12]
 230:Core/Src/main.c ****   huart1.Init.Mode = UART_MODE_TX_RX;
 676              		.loc 1 230 3 is_stmt 1 view .LVU169
 230:Core/Src/main.c ****   huart1.Init.Mode = UART_MODE_TX_RX;
 677              		.loc 1 230 22 is_stmt 0 view .LVU170
 678 0014 0361     		str	r3, [r0, #16]
 231:Core/Src/main.c ****   huart1.Init.HwFlowCtl = UART_HWCONTROL_NONE;
 679              		.loc 1 231 3 is_stmt 1 view .LVU171
 231:Core/Src/main.c ****   huart1.Init.HwFlowCtl = UART_HWCONTROL_NONE;
 680              		.loc 1 231 20 is_stmt 0 view .LVU172
 681 0016 0C22     		movs	r2, #12
 682 0018 4261     		str	r2, [r0, #20]
 232:Core/Src/main.c ****   huart1.Init.OverSampling = UART_OVERSAMPLING_16;
 683              		.loc 1 232 3 is_stmt 1 view .LVU173
 232:Core/Src/main.c ****   huart1.Init.OverSampling = UART_OVERSAMPLING_16;
 684              		.loc 1 232 25 is_stmt 0 view .LVU174
 685 001a 8361     		str	r3, [r0, #24]
 233:Core/Src/main.c ****   if (HAL_UART_Init(&huart1) != HAL_OK)
 686              		.loc 1 233 3 is_stmt 1 view .LVU175
 233:Core/Src/main.c ****   if (HAL_UART_Init(&huart1) != HAL_OK)
 687              		.loc 1 233 28 is_stmt 0 view .LVU176
 688 001c C361     		str	r3, [r0, #28]
 234:Core/Src/main.c ****   {
 689              		.loc 1 234 3 is_stmt 1 view .LVU177
 234:Core/Src/main.c ****   {
 690              		.loc 1 234 7 is_stmt 0 view .LVU178
 691 001e FFF7FEFF 		bl	HAL_UART_Init
 692              	.LVL38:
 234:Core/Src/main.c ****   {
 693              		.loc 1 234 6 discriminator 1 view .LVU179
ARM GAS  C:\Users\limak\AppData\Local\Temp\ccxefUlm.s 			page 24


 694 0022 00B9     		cbnz	r0, .L48
 242:Core/Src/main.c **** 
 695              		.loc 1 242 1 view .LVU180
 696 0024 08BD     		pop	{r3, pc}
 697              	.L48:
 236:Core/Src/main.c ****   }
 698              		.loc 1 236 5 is_stmt 1 view .LVU181
 699 0026 FFF7FEFF 		bl	Error_Handler
 700              	.LVL39:
 701              	.L50:
 702 002a 00BF     		.align	2
 703              	.L49:
 704 002c 00000000 		.word	huart1
 705 0030 00380140 		.word	1073821696
 706              		.cfi_endproc
 707              	.LFE80:
 709              		.section	.text.MX_USART2_UART_Init,"ax",%progbits
 710              		.align	1
 711              		.syntax unified
 712              		.thumb
 713              		.thumb_func
 715              	MX_USART2_UART_Init:
 716              	.LFB81:
 250:Core/Src/main.c **** 
 717              		.loc 1 250 1 view -0
 718              		.cfi_startproc
 719              		@ args = 0, pretend = 0, frame = 0
 720              		@ frame_needed = 0, uses_anonymous_args = 0
 721 0000 08B5     		push	{r3, lr}
 722              		.cfi_def_cfa_offset 8
 723              		.cfi_offset 3, -8
 724              		.cfi_offset 14, -4
 259:Core/Src/main.c ****   huart2.Init.BaudRate = 115200;
 725              		.loc 1 259 3 view .LVU183
 259:Core/Src/main.c ****   huart2.Init.BaudRate = 115200;
 726              		.loc 1 259 19 is_stmt 0 view .LVU184
 727 0002 0A48     		ldr	r0, .L55
 728 0004 0A4B     		ldr	r3, .L55+4
 729 0006 0360     		str	r3, [r0]
 260:Core/Src/main.c ****   huart2.Init.WordLength = UART_WORDLENGTH_8B;
 730              		.loc 1 260 3 is_stmt 1 view .LVU185
 260:Core/Src/main.c ****   huart2.Init.WordLength = UART_WORDLENGTH_8B;
 731              		.loc 1 260 24 is_stmt 0 view .LVU186
 732 0008 4FF4E133 		mov	r3, #115200
 733 000c 4360     		str	r3, [r0, #4]
 261:Core/Src/main.c ****   huart2.Init.StopBits = UART_STOPBITS_1;
 734              		.loc 1 261 3 is_stmt 1 view .LVU187
 261:Core/Src/main.c ****   huart2.Init.StopBits = UART_STOPBITS_1;
 735              		.loc 1 261 26 is_stmt 0 view .LVU188
 736 000e 0023     		movs	r3, #0
 737 0010 8360     		str	r3, [r0, #8]
 262:Core/Src/main.c ****   huart2.Init.Parity = UART_PARITY_NONE;
 738              		.loc 1 262 3 is_stmt 1 view .LVU189
 262:Core/Src/main.c ****   huart2.Init.Parity = UART_PARITY_NONE;
 739              		.loc 1 262 24 is_stmt 0 view .LVU190
 740 0012 C360     		str	r3, [r0, #12]
 263:Core/Src/main.c ****   huart2.Init.Mode = UART_MODE_TX_RX;
ARM GAS  C:\Users\limak\AppData\Local\Temp\ccxefUlm.s 			page 25


 741              		.loc 1 263 3 is_stmt 1 view .LVU191
 263:Core/Src/main.c ****   huart2.Init.Mode = UART_MODE_TX_RX;
 742              		.loc 1 263 22 is_stmt 0 view .LVU192
 743 0014 0361     		str	r3, [r0, #16]
 264:Core/Src/main.c ****   huart2.Init.HwFlowCtl = UART_HWCONTROL_NONE;
 744              		.loc 1 264 3 is_stmt 1 view .LVU193
 264:Core/Src/main.c ****   huart2.Init.HwFlowCtl = UART_HWCONTROL_NONE;
 745              		.loc 1 264 20 is_stmt 0 view .LVU194
 746 0016 0C22     		movs	r2, #12
 747 0018 4261     		str	r2, [r0, #20]
 265:Core/Src/main.c ****   huart2.Init.OverSampling = UART_OVERSAMPLING_16;
 748              		.loc 1 265 3 is_stmt 1 view .LVU195
 265:Core/Src/main.c ****   huart2.Init.OverSampling = UART_OVERSAMPLING_16;
 749              		.loc 1 265 25 is_stmt 0 view .LVU196
 750 001a 8361     		str	r3, [r0, #24]
 266:Core/Src/main.c ****   if (HAL_UART_Init(&huart2) != HAL_OK)
 751              		.loc 1 266 3 is_stmt 1 view .LVU197
 266:Core/Src/main.c ****   if (HAL_UART_Init(&huart2) != HAL_OK)
 752              		.loc 1 266 28 is_stmt 0 view .LVU198
 753 001c C361     		str	r3, [r0, #28]
 267:Core/Src/main.c ****   {
 754              		.loc 1 267 3 is_stmt 1 view .LVU199
 267:Core/Src/main.c ****   {
 755              		.loc 1 267 7 is_stmt 0 view .LVU200
 756 001e FFF7FEFF 		bl	HAL_UART_Init
 757              	.LVL40:
 267:Core/Src/main.c ****   {
 758              		.loc 1 267 6 discriminator 1 view .LVU201
 759 0022 00B9     		cbnz	r0, .L54
 275:Core/Src/main.c **** 
 760              		.loc 1 275 1 view .LVU202
 761 0024 08BD     		pop	{r3, pc}
 762              	.L54:
 269:Core/Src/main.c ****   }
 763              		.loc 1 269 5 is_stmt 1 view .LVU203
 764 0026 FFF7FEFF 		bl	Error_Handler
 765              	.LVL41:
 766              	.L56:
 767 002a 00BF     		.align	2
 768              	.L55:
 769 002c 00000000 		.word	huart2
 770 0030 00440040 		.word	1073759232
 771              		.cfi_endproc
 772              	.LFE81:
 774              		.section	.text.SystemClock_Config,"ax",%progbits
 775              		.align	1
 776              		.global	SystemClock_Config
 777              		.syntax unified
 778              		.thumb
 779              		.thumb_func
 781              	SystemClock_Config:
 782              	.LFB78:
 143:Core/Src/main.c ****   RCC_OscInitTypeDef RCC_OscInitStruct = {0};
 783              		.loc 1 143 1 view -0
 784              		.cfi_startproc
 785              		@ args = 0, pretend = 0, frame = 64
 786              		@ frame_needed = 0, uses_anonymous_args = 0
ARM GAS  C:\Users\limak\AppData\Local\Temp\ccxefUlm.s 			page 26


 787 0000 10B5     		push	{r4, lr}
 788              		.cfi_def_cfa_offset 8
 789              		.cfi_offset 4, -8
 790              		.cfi_offset 14, -4
 791 0002 90B0     		sub	sp, sp, #64
 792              		.cfi_def_cfa_offset 72
 144:Core/Src/main.c ****   RCC_ClkInitTypeDef RCC_ClkInitStruct = {0};
 793              		.loc 1 144 3 view .LVU205
 144:Core/Src/main.c ****   RCC_ClkInitTypeDef RCC_ClkInitStruct = {0};
 794              		.loc 1 144 22 is_stmt 0 view .LVU206
 795 0004 06AC     		add	r4, sp, #24
 796 0006 2822     		movs	r2, #40
 797 0008 0021     		movs	r1, #0
 798 000a 2046     		mov	r0, r4
 799 000c FFF7FEFF 		bl	memset
 800              	.LVL42:
 145:Core/Src/main.c **** 
 801              		.loc 1 145 3 is_stmt 1 view .LVU207
 145:Core/Src/main.c **** 
 802              		.loc 1 145 22 is_stmt 0 view .LVU208
 803 0010 0023     		movs	r3, #0
 804 0012 0193     		str	r3, [sp, #4]
 805 0014 0293     		str	r3, [sp, #8]
 806 0016 0393     		str	r3, [sp, #12]
 807 0018 0493     		str	r3, [sp, #16]
 808 001a 0593     		str	r3, [sp, #20]
 150:Core/Src/main.c ****   RCC_OscInitStruct.HSEState = RCC_HSE_ON;
 809              		.loc 1 150 3 is_stmt 1 view .LVU209
 150:Core/Src/main.c ****   RCC_OscInitStruct.HSEState = RCC_HSE_ON;
 810              		.loc 1 150 36 is_stmt 0 view .LVU210
 811 001c 0122     		movs	r2, #1
 812 001e 0692     		str	r2, [sp, #24]
 151:Core/Src/main.c ****   RCC_OscInitStruct.HSEPredivValue = RCC_HSE_PREDIV_DIV2;
 813              		.loc 1 151 3 is_stmt 1 view .LVU211
 151:Core/Src/main.c ****   RCC_OscInitStruct.HSEPredivValue = RCC_HSE_PREDIV_DIV2;
 814              		.loc 1 151 30 is_stmt 0 view .LVU212
 815 0020 4FF48033 		mov	r3, #65536
 816 0024 0793     		str	r3, [sp, #28]
 152:Core/Src/main.c ****   RCC_OscInitStruct.HSIState = RCC_HSI_ON;
 817              		.loc 1 152 3 is_stmt 1 view .LVU213
 152:Core/Src/main.c ****   RCC_OscInitStruct.HSIState = RCC_HSI_ON;
 818              		.loc 1 152 36 is_stmt 0 view .LVU214
 819 0026 4FF40031 		mov	r1, #131072
 820 002a 0891     		str	r1, [sp, #32]
 153:Core/Src/main.c ****   RCC_OscInitStruct.PLL.PLLState = RCC_PLL_ON;
 821              		.loc 1 153 3 is_stmt 1 view .LVU215
 153:Core/Src/main.c ****   RCC_OscInitStruct.PLL.PLLState = RCC_PLL_ON;
 822              		.loc 1 153 30 is_stmt 0 view .LVU216
 823 002c 0A92     		str	r2, [sp, #40]
 154:Core/Src/main.c ****   RCC_OscInitStruct.PLL.PLLSource = RCC_PLLSOURCE_HSE;
 824              		.loc 1 154 3 is_stmt 1 view .LVU217
 154:Core/Src/main.c ****   RCC_OscInitStruct.PLL.PLLSource = RCC_PLLSOURCE_HSE;
 825              		.loc 1 154 34 is_stmt 0 view .LVU218
 826 002e 0222     		movs	r2, #2
 827 0030 0D92     		str	r2, [sp, #52]
 155:Core/Src/main.c ****   RCC_OscInitStruct.PLL.PLLMUL = RCC_PLL_MUL9;
 828              		.loc 1 155 3 is_stmt 1 view .LVU219
ARM GAS  C:\Users\limak\AppData\Local\Temp\ccxefUlm.s 			page 27


 155:Core/Src/main.c ****   RCC_OscInitStruct.PLL.PLLMUL = RCC_PLL_MUL9;
 829              		.loc 1 155 35 is_stmt 0 view .LVU220
 830 0032 0E93     		str	r3, [sp, #56]
 156:Core/Src/main.c ****   if (HAL_RCC_OscConfig(&RCC_OscInitStruct) != HAL_OK)
 831              		.loc 1 156 3 is_stmt 1 view .LVU221
 156:Core/Src/main.c ****   if (HAL_RCC_OscConfig(&RCC_OscInitStruct) != HAL_OK)
 832              		.loc 1 156 32 is_stmt 0 view .LVU222
 833 0034 4FF4E013 		mov	r3, #1835008
 834 0038 0F93     		str	r3, [sp, #60]
 157:Core/Src/main.c ****   {
 835              		.loc 1 157 3 is_stmt 1 view .LVU223
 157:Core/Src/main.c ****   {
 836              		.loc 1 157 7 is_stmt 0 view .LVU224
 837 003a 2046     		mov	r0, r4
 838 003c FFF7FEFF 		bl	HAL_RCC_OscConfig
 839              	.LVL43:
 157:Core/Src/main.c ****   {
 840              		.loc 1 157 6 discriminator 1 view .LVU225
 841 0040 78B9     		cbnz	r0, .L61
 164:Core/Src/main.c ****                               |RCC_CLOCKTYPE_PCLK1|RCC_CLOCKTYPE_PCLK2;
 842              		.loc 1 164 3 is_stmt 1 view .LVU226
 164:Core/Src/main.c ****                               |RCC_CLOCKTYPE_PCLK1|RCC_CLOCKTYPE_PCLK2;
 843              		.loc 1 164 31 is_stmt 0 view .LVU227
 844 0042 0F23     		movs	r3, #15
 845 0044 0193     		str	r3, [sp, #4]
 166:Core/Src/main.c ****   RCC_ClkInitStruct.AHBCLKDivider = RCC_SYSCLK_DIV1;
 846              		.loc 1 166 3 is_stmt 1 view .LVU228
 166:Core/Src/main.c ****   RCC_ClkInitStruct.AHBCLKDivider = RCC_SYSCLK_DIV1;
 847              		.loc 1 166 34 is_stmt 0 view .LVU229
 848 0046 0221     		movs	r1, #2
 849 0048 0291     		str	r1, [sp, #8]
 167:Core/Src/main.c ****   RCC_ClkInitStruct.APB1CLKDivider = RCC_HCLK_DIV2;
 850              		.loc 1 167 3 is_stmt 1 view .LVU230
 167:Core/Src/main.c ****   RCC_ClkInitStruct.APB1CLKDivider = RCC_HCLK_DIV2;
 851              		.loc 1 167 35 is_stmt 0 view .LVU231
 852 004a 0023     		movs	r3, #0
 853 004c 0393     		str	r3, [sp, #12]
 168:Core/Src/main.c ****   RCC_ClkInitStruct.APB2CLKDivider = RCC_HCLK_DIV1;
 854              		.loc 1 168 3 is_stmt 1 view .LVU232
 168:Core/Src/main.c ****   RCC_ClkInitStruct.APB2CLKDivider = RCC_HCLK_DIV1;
 855              		.loc 1 168 36 is_stmt 0 view .LVU233
 856 004e 4FF48062 		mov	r2, #1024
 857 0052 0492     		str	r2, [sp, #16]
 169:Core/Src/main.c **** 
 858              		.loc 1 169 3 is_stmt 1 view .LVU234
 169:Core/Src/main.c **** 
 859              		.loc 1 169 36 is_stmt 0 view .LVU235
 860 0054 0593     		str	r3, [sp, #20]
 171:Core/Src/main.c ****   {
 861              		.loc 1 171 3 is_stmt 1 view .LVU236
 171:Core/Src/main.c ****   {
 862              		.loc 1 171 7 is_stmt 0 view .LVU237
 863 0056 01A8     		add	r0, sp, #4
 864 0058 FFF7FEFF 		bl	HAL_RCC_ClockConfig
 865              	.LVL44:
 171:Core/Src/main.c ****   {
 866              		.loc 1 171 6 discriminator 1 view .LVU238
ARM GAS  C:\Users\limak\AppData\Local\Temp\ccxefUlm.s 			page 28


 867 005c 18B9     		cbnz	r0, .L62
 175:Core/Src/main.c **** 
 868              		.loc 1 175 1 view .LVU239
 869 005e 10B0     		add	sp, sp, #64
 870              		.cfi_remember_state
 871              		.cfi_def_cfa_offset 8
 872              		@ sp needed
 873 0060 10BD     		pop	{r4, pc}
 874              	.L61:
 875              		.cfi_restore_state
 159:Core/Src/main.c ****   }
 876              		.loc 1 159 5 is_stmt 1 view .LVU240
 877 0062 FFF7FEFF 		bl	Error_Handler
 878              	.LVL45:
 879              	.L62:
 173:Core/Src/main.c ****   }
 880              		.loc 1 173 5 view .LVU241
 881 0066 FFF7FEFF 		bl	Error_Handler
 882              	.LVL46:
 883              		.cfi_endproc
 884              	.LFE78:
 886              		.section	.rodata.main.str1.4,"aMS",%progbits,1
 887              		.align	2
 888              	.LC0:
 889 0000 5241573A 		.ascii	"RAW: %ld | V: %ld.%06ld V | RAW_SOFT: %ld | V_SOFT:"
 889      20256C64 
 889      207C2056 
 889      3A20256C 
 889      642E2530 
 890 0033 20256C64 		.ascii	" %ld.%06ld V\015\012\000"
 890      2E253036 
 890      6C642056 
 890      0D0A00
 891              		.section	.text.main,"ax",%progbits
 892              		.align	1
 893              		.global	main
 894              		.syntax unified
 895              		.thumb
 896              		.thumb_func
 898              	main:
 899              	.LFB77:
  90:Core/Src/main.c ****   HAL_Init();
 900              		.loc 1 90 1 view -0
 901              		.cfi_startproc
 902              		@ args = 0, pretend = 0, frame = 200
 903              		@ frame_needed = 0, uses_anonymous_args = 0
 904 0000 2DE9F043 		push	{r4, r5, r6, r7, r8, r9, lr}
 905              		.cfi_def_cfa_offset 28
 906              		.cfi_offset 4, -28
 907              		.cfi_offset 5, -24
 908              		.cfi_offset 6, -20
 909              		.cfi_offset 7, -16
 910              		.cfi_offset 8, -12
 911              		.cfi_offset 9, -8
 912              		.cfi_offset 14, -4
 913 0004 B9B0     		sub	sp, sp, #228
 914              		.cfi_def_cfa_offset 256
ARM GAS  C:\Users\limak\AppData\Local\Temp\ccxefUlm.s 			page 29


  91:Core/Src/main.c ****   SystemClock_Config();
 915              		.loc 1 91 3 view .LVU243
 916 0006 FFF7FEFF 		bl	HAL_Init
 917              	.LVL47:
  92:Core/Src/main.c ****   MX_GPIO_Init();
 918              		.loc 1 92 3 view .LVU244
 919 000a FFF7FEFF 		bl	SystemClock_Config
 920              	.LVL48:
  93:Core/Src/main.c ****   MX_I2C1_Init();
 921              		.loc 1 93 3 view .LVU245
 922 000e FFF7FEFF 		bl	MX_GPIO_Init
 923              	.LVL49:
  94:Core/Src/main.c ****   MX_USART1_UART_Init();
 924              		.loc 1 94 3 view .LVU246
 925 0012 FFF7FEFF 		bl	MX_I2C1_Init
 926              	.LVL50:
  95:Core/Src/main.c ****   MX_USART2_UART_Init();
 927              		.loc 1 95 3 view .LVU247
 928 0016 FFF7FEFF 		bl	MX_USART1_UART_Init
 929              	.LVL51:
  96:Core/Src/main.c **** 
 930              		.loc 1 96 3 view .LVU248
 931 001a FFF7FEFF 		bl	MX_USART2_UART_Init
 932              	.LVL52:
 104:Core/Src/main.c ****       Error_Handler(); // Falha ao iniciar contador
 933              		.loc 1 104 3 view .LVU249
 104:Core/Src/main.c ****       Error_Handler(); // Falha ao iniciar contador
 934              		.loc 1 104 7 is_stmt 0 view .LVU250
 935 001e FFF7FEFF 		bl	DWT_Delay_Init
 936              	.LVL53:
 104:Core/Src/main.c ****       Error_Handler(); // Falha ao iniciar contador
 937              		.loc 1 104 6 discriminator 1 view .LVU251
 938 0022 08B1     		cbz	r0, .L64
 105:Core/Src/main.c ****   }
 939              		.loc 1 105 7 is_stmt 1 view .LVU252
 940 0024 FFF7FEFF 		bl	Error_Handler
 941              	.LVL54:
 942              	.L64:
 108:Core/Src/main.c **** 
 943              		.loc 1 108 3 view .LVU253
 944 0028 FFF7FEFF 		bl	I2C_init
 945              	.LVL55:
 946 002c 23E0     		b	.L67
 947              	.LVL56:
 948              	.L69:
 949              	.LBB11:
 118:Core/Src/main.c **** 
 950              		.loc 1 118 23 discriminator 1 view .LVU254
 118:Core/Src/main.c **** 
 951              		.loc 1 118 32 is_stmt 0 discriminator 1 view .LVU255
 952 002e 6442     		rsbs	r4, r4, #0
 953 0030 41E0     		b	.L65
 954              	.LVL57:
 955              	.L70:
 127:Core/Src/main.c **** 
 956              		.loc 1 127 28 is_stmt 1 discriminator 1 view .LVU256
 127:Core/Src/main.c **** 
ARM GAS  C:\Users\limak\AppData\Local\Temp\ccxefUlm.s 			page 30


 957              		.loc 1 127 42 is_stmt 0 discriminator 1 view .LVU257
 958 0032 4042     		rsbs	r0, r0, #0
 959              	.LVL58:
 960              	.L66:
 129:Core/Src/main.c **** 
 961              		.loc 1 129 5 is_stmt 1 view .LVU258
 962 0034 06AD     		add	r5, sp, #24
 963              	.LVL59:
 129:Core/Src/main.c **** 
 964              		.loc 1 129 5 is_stmt 0 view .LVU259
 965 0036 0490     		str	r0, [sp, #16]
 966 0038 CDF80C90 		str	r9, [sp, #12]
 967 003c CDF80880 		str	r8, [sp, #8]
 968 0040 0194     		str	r4, [sp, #4]
 969 0042 0097     		str	r7, [sp]
 970 0044 3346     		mov	r3, r6
 971 0046 2E4A     		ldr	r2, .L71+8
 972 0048 C821     		movs	r1, #200
 973 004a 2846     		mov	r0, r5
 974              	.LVL60:
 129:Core/Src/main.c **** 
 975              		.loc 1 129 5 view .LVU260
 976 004c FFF7FEFF 		bl	snprintf
 977              	.LVL61:
 131:Core/Src/main.c ****     HAL_GPIO_TogglePin(GPIOB, GPIO_PIN_11);
 978              		.loc 1 131 5 is_stmt 1 view .LVU261
 131:Core/Src/main.c ****     HAL_GPIO_TogglePin(GPIOB, GPIO_PIN_11);
 979              		.loc 1 131 47 is_stmt 0 view .LVU262
 980 0050 2846     		mov	r0, r5
 981 0052 FFF7FEFF 		bl	strlen
 982              	.LVL62:
 131:Core/Src/main.c ****     HAL_GPIO_TogglePin(GPIOB, GPIO_PIN_11);
 983              		.loc 1 131 5 discriminator 1 view .LVU263
 984 0056 4FF0FF33 		mov	r3, #-1
 985 005a 82B2     		uxth	r2, r0
 986 005c 2946     		mov	r1, r5
 987 005e 2948     		ldr	r0, .L71+12
 988 0060 FFF7FEFF 		bl	HAL_UART_Transmit
 989              	.LVL63:
 132:Core/Src/main.c **** 
 990              		.loc 1 132 5 is_stmt 1 view .LVU264
 991 0064 4FF40061 		mov	r1, #2048
 992 0068 2748     		ldr	r0, .L71+16
 993 006a FFF7FEFF 		bl	HAL_GPIO_TogglePin
 994              	.LVL64:
 134:Core/Src/main.c ****   }
 995              		.loc 1 134 5 view .LVU265
 996 006e 4FF4FA70 		mov	r0, #500
 997 0072 FFF7FEFF 		bl	HAL_Delay
 998              	.LVL65:
 999              	.LBE11:
 111:Core/Src/main.c ****   {
 1000              		.loc 1 111 9 view .LVU266
 1001              	.L67:
 110:Core/Src/main.c ****   while (1)
 1002              		.loc 1 110 3 view .LVU267
 111:Core/Src/main.c ****   {
ARM GAS  C:\Users\limak\AppData\Local\Temp\ccxefUlm.s 			page 31


 1003              		.loc 1 111 3 view .LVU268
 1004              	.LBB12:
 113:Core/Src/main.c ****     float v = mcpToVoltage(raw, 18);
 1005              		.loc 1 113 5 view .LVU269
 113:Core/Src/main.c ****     float v = mcpToVoltage(raw, 18);
 1006              		.loc 1 113 19 is_stmt 0 view .LVU270
 1007 0076 FFF7FEFF 		bl	MCP3421_ReadRaw
 1008              	.LVL66:
 1009 007a 0646     		mov	r6, r0
 1010              	.LVL67:
 114:Core/Src/main.c ****     float v_adjust = v / DIVISOR_RES_MCP1; // Ajusta para divisor de tensão externo
 1011              		.loc 1 114 5 is_stmt 1 view .LVU271
 114:Core/Src/main.c ****     float v_adjust = v / DIVISOR_RES_MCP1; // Ajusta para divisor de tensão externo
 1012              		.loc 1 114 15 is_stmt 0 view .LVU272
 1013 007c 1221     		movs	r1, #18
 1014 007e FFF7FEFF 		bl	mcpToVoltage
 1015              	.LVL68:
 115:Core/Src/main.c ****     int32_t integras = (int32_t)v_adjust;
 1016              		.loc 1 115 5 is_stmt 1 view .LVU273
 115:Core/Src/main.c ****     int32_t integras = (int32_t)v_adjust;
 1017              		.loc 1 115 24 is_stmt 0 view .LVU274
 1018 0082 FFF7FEFF 		bl	__aeabi_f2d
 1019              	.LVL69:
 115:Core/Src/main.c ****     int32_t integras = (int32_t)v_adjust;
 1020              		.loc 1 115 24 view .LVU275
 1021 0086 1CA3     		adr	r3, .L71
 1022 0088 D3E90023 		ldrd	r2, [r3]
 1023 008c FFF7FEFF 		bl	__aeabi_ddiv
 1024              	.LVL70:
 115:Core/Src/main.c ****     int32_t integras = (int32_t)v_adjust;
 1025              		.loc 1 115 11 view .LVU276
 1026 0090 FFF7FEFF 		bl	__aeabi_d2f
 1027              	.LVL71:
 1028 0094 0446     		mov	r4, r0
 1029              	.LVL72:
 116:Core/Src/main.c ****     int32_t decimais = (int32_t)((v_adjust - integras) * 1000000); // 6 casas decimais
 1030              		.loc 1 116 5 is_stmt 1 view .LVU277
 116:Core/Src/main.c ****     int32_t decimais = (int32_t)((v_adjust - integras) * 1000000); // 6 casas decimais
 1031              		.loc 1 116 13 is_stmt 0 view .LVU278
 1032 0096 FFF7FEFF 		bl	__aeabi_f2iz
 1033              	.LVL73:
 116:Core/Src/main.c ****     int32_t decimais = (int32_t)((v_adjust - integras) * 1000000); // 6 casas decimais
 1034              		.loc 1 116 13 view .LVU279
 1035 009a 0746     		mov	r7, r0
 1036              	.LVL74:
 117:Core/Src/main.c ****     if (decimais < 0) decimais *= -1; // Garante que a parte decimal seja positiva
 1037              		.loc 1 117 5 is_stmt 1 view .LVU280
 117:Core/Src/main.c ****     if (decimais < 0) decimais *= -1; // Garante que a parte decimal seja positiva
 1038              		.loc 1 117 44 is_stmt 0 view .LVU281
 1039 009c FFF7FEFF 		bl	__aeabi_i2f
 1040              	.LVL75:
 117:Core/Src/main.c ****     if (decimais < 0) decimais *= -1; // Garante que a parte decimal seja positiva
 1041              		.loc 1 117 44 view .LVU282
 1042 00a0 0146     		mov	r1, r0
 1043 00a2 2046     		mov	r0, r4
 1044 00a4 FFF7FEFF 		bl	__aeabi_fsub
 1045              	.LVL76:
ARM GAS  C:\Users\limak\AppData\Local\Temp\ccxefUlm.s 			page 32


 117:Core/Src/main.c ****     if (decimais < 0) decimais *= -1; // Garante que a parte decimal seja positiva
 1046              		.loc 1 117 56 view .LVU283
 1047 00a8 1849     		ldr	r1, .L71+20
 1048 00aa FFF7FEFF 		bl	__aeabi_fmul
 1049              	.LVL77:
 117:Core/Src/main.c ****     if (decimais < 0) decimais *= -1; // Garante que a parte decimal seja positiva
 1050              		.loc 1 117 13 view .LVU284
 1051 00ae FFF7FEFF 		bl	__aeabi_f2iz
 1052              	.LVL78:
 118:Core/Src/main.c **** 
 1053              		.loc 1 118 5 is_stmt 1 view .LVU285
 118:Core/Src/main.c **** 
 1054              		.loc 1 118 8 is_stmt 0 view .LVU286
 1055 00b2 041E     		subs	r4, r0, #0
 1056              	.LVL79:
 118:Core/Src/main.c **** 
 1057              		.loc 1 118 8 view .LVU287
 1058 00b4 BBDB     		blt	.L69
 1059              	.L65:
 1060              	.LVL80:
 121:Core/Src/main.c ****     // Conversão (usando sua função mcpToVoltage já existente)
 1061              		.loc 1 121 5 is_stmt 1 view .LVU288
 121:Core/Src/main.c ****     // Conversão (usando sua função mcpToVoltage já existente)
 1062              		.loc 1 121 24 is_stmt 0 view .LVU289
 1063 00b6 FFF7FEFF 		bl	MCP3421_Soft_ReadRaw
 1064              	.LVL81:
 1065 00ba 8046     		mov	r8, r0
 1066              	.LVL82:
 123:Core/Src/main.c ****     float v_soft_adjust = v_soft / DIVISOR_RES_MCP1;
 1067              		.loc 1 123 5 is_stmt 1 view .LVU290
 123:Core/Src/main.c ****     float v_soft_adjust = v_soft / DIVISOR_RES_MCP1;
 1068              		.loc 1 123 20 is_stmt 0 view .LVU291
 1069 00bc 1221     		movs	r1, #18
 1070 00be FFF7FEFF 		bl	mcpToVoltage
 1071              	.LVL83:
 124:Core/Src/main.c ****     int32_t integras_soft = (int32_t)v_soft_adjust;
 1072              		.loc 1 124 5 is_stmt 1 view .LVU292
 124:Core/Src/main.c ****     int32_t integras_soft = (int32_t)v_soft_adjust;
 1073              		.loc 1 124 34 is_stmt 0 view .LVU293
 1074 00c2 FFF7FEFF 		bl	__aeabi_f2d
 1075              	.LVL84:
 124:Core/Src/main.c ****     int32_t integras_soft = (int32_t)v_soft_adjust;
 1076              		.loc 1 124 34 view .LVU294
 1077 00c6 0CA3     		adr	r3, .L71
 1078 00c8 D3E90023 		ldrd	r2, [r3]
 1079 00cc FFF7FEFF 		bl	__aeabi_ddiv
 1080              	.LVL85:
 124:Core/Src/main.c ****     int32_t integras_soft = (int32_t)v_soft_adjust;
 1081              		.loc 1 124 11 view .LVU295
 1082 00d0 FFF7FEFF 		bl	__aeabi_d2f
 1083              	.LVL86:
 1084 00d4 0546     		mov	r5, r0
 1085              	.LVL87:
 125:Core/Src/main.c ****     int32_t decimais_soft = (int32_t)((v_soft_adjust - integras_soft) * 1000000);
 1086              		.loc 1 125 5 is_stmt 1 view .LVU296
 125:Core/Src/main.c ****     int32_t decimais_soft = (int32_t)((v_soft_adjust - integras_soft) * 1000000);
 1087              		.loc 1 125 13 is_stmt 0 view .LVU297
ARM GAS  C:\Users\limak\AppData\Local\Temp\ccxefUlm.s 			page 33


 1088 00d6 FFF7FEFF 		bl	__aeabi_f2iz
 1089              	.LVL88:
 125:Core/Src/main.c ****     int32_t decimais_soft = (int32_t)((v_soft_adjust - integras_soft) * 1000000);
 1090              		.loc 1 125 13 view .LVU298
 1091 00da 8146     		mov	r9, r0
 1092              	.LVL89:
 126:Core/Src/main.c ****     if (decimais_soft < 0) decimais_soft *= -1;
 1093              		.loc 1 126 5 is_stmt 1 view .LVU299
 126:Core/Src/main.c ****     if (decimais_soft < 0) decimais_soft *= -1;
 1094              		.loc 1 126 54 is_stmt 0 view .LVU300
 1095 00dc FFF7FEFF 		bl	__aeabi_i2f
 1096              	.LVL90:
 126:Core/Src/main.c ****     if (decimais_soft < 0) decimais_soft *= -1;
 1097              		.loc 1 126 54 view .LVU301
 1098 00e0 0146     		mov	r1, r0
 1099 00e2 2846     		mov	r0, r5
 1100 00e4 FFF7FEFF 		bl	__aeabi_fsub
 1101              	.LVL91:
 126:Core/Src/main.c ****     if (decimais_soft < 0) decimais_soft *= -1;
 1102              		.loc 1 126 71 view .LVU302
 1103 00e8 0849     		ldr	r1, .L71+20
 1104 00ea FFF7FEFF 		bl	__aeabi_fmul
 1105              	.LVL92:
 126:Core/Src/main.c ****     if (decimais_soft < 0) decimais_soft *= -1;
 1106              		.loc 1 126 13 view .LVU303
 1107 00ee FFF7FEFF 		bl	__aeabi_f2iz
 1108              	.LVL93:
 127:Core/Src/main.c **** 
 1109              		.loc 1 127 5 is_stmt 1 view .LVU304
 127:Core/Src/main.c **** 
 1110              		.loc 1 127 8 is_stmt 0 view .LVU305
 1111 00f2 0028     		cmp	r0, #0
 127:Core/Src/main.c **** 
 1112              		.loc 1 127 8 view .LVU306
 1113 00f4 9DDB     		blt	.L70
 1114 00f6 9DE7     		b	.L66
 1115              	.L72:
 1116              		.align	3
 1117              	.L71:
 1118 00f8 26FC99F0 		.word	-258343898
 1119 00fc 67C2CF3F 		.word	1070580327
 1120 0100 00000000 		.word	.LC0
 1121 0104 00000000 		.word	huart1
 1122 0108 000C0140 		.word	1073810432
 1123 010c 00247449 		.word	1232348160
 1124              	.LBE12:
 1125              		.cfi_endproc
 1126              	.LFE77:
 1128              		.global	defaultTaskHandle
 1129              		.section	.bss.defaultTaskHandle,"aw",%nobits
 1130              		.align	2
 1133              	defaultTaskHandle:
 1134 0000 00000000 		.space	4
 1135              		.global	huart2
 1136              		.section	.bss.huart2,"aw",%nobits
 1137              		.align	2
 1140              	huart2:
ARM GAS  C:\Users\limak\AppData\Local\Temp\ccxefUlm.s 			page 34


 1141 0000 00000000 		.space	72
 1141      00000000 
 1141      00000000 
 1141      00000000 
 1141      00000000 
 1142              		.global	huart1
 1143              		.section	.bss.huart1,"aw",%nobits
 1144              		.align	2
 1147              	huart1:
 1148 0000 00000000 		.space	72
 1148      00000000 
 1148      00000000 
 1148      00000000 
 1148      00000000 
 1149              		.global	hi2c1
 1150              		.section	.bss.hi2c1,"aw",%nobits
 1151              		.align	2
 1154              	hi2c1:
 1155 0000 00000000 		.space	84
 1155      00000000 
 1155      00000000 
 1155      00000000 
 1155      00000000 
 1156              		.text
 1157              	.Letext0:
 1158              		.file 3 "C:/Users/limak/AppData/Roaming/Code/User/globalStorage/bmd.stm32-for-vscode/@xpack-dev-to
 1159              		.file 4 "C:/Users/limak/AppData/Roaming/Code/User/globalStorage/bmd.stm32-for-vscode/@xpack-dev-to
 1160              		.file 5 "Drivers/CMSIS/Device/ST/STM32F1xx/Include/stm32f103xe.h"
 1161              		.file 6 "C:/Users/limak/AppData/Roaming/Code/User/globalStorage/bmd.stm32-for-vscode/@xpack-dev-to
 1162              		.file 7 "Drivers/STM32F1xx_HAL_Driver/Inc/stm32f1xx_hal_def.h"
 1163              		.file 8 "Drivers/STM32F1xx_HAL_Driver/Inc/stm32f1xx_hal_rcc.h"
 1164              		.file 9 "Drivers/STM32F1xx_HAL_Driver/Inc/stm32f1xx_hal_rcc_ex.h"
 1165              		.file 10 "Drivers/STM32F1xx_HAL_Driver/Inc/stm32f1xx_hal_gpio.h"
 1166              		.file 11 "Drivers/STM32F1xx_HAL_Driver/Inc/stm32f1xx_hal_dma.h"
 1167              		.file 12 "Drivers/STM32F1xx_HAL_Driver/Inc/stm32f1xx_hal_i2c.h"
 1168              		.file 13 "Drivers/STM32F1xx_HAL_Driver/Inc/stm32f1xx_hal_tim.h"
 1169              		.file 14 "Drivers/STM32F1xx_HAL_Driver/Inc/stm32f1xx_hal_uart.h"
 1170              		.file 15 "Middlewares/Third_Party/FreeRTOS/Source/include/task.h"
 1171              		.file 16 "Middlewares/Third_Party/FreeRTOS/Source/CMSIS_RTOS/cmsis_os.h"
 1172              		.file 17 "C:/Users/limak/AppData/Roaming/Code/User/globalStorage/bmd.stm32-for-vscode/@xpack-dev-t
 1173              		.file 18 "C:/Users/limak/AppData/Roaming/Code/User/globalStorage/bmd.stm32-for-vscode/@xpack-dev-t
 1174              		.file 19 "Drivers/STM32F1xx_HAL_Driver/Inc/stm32f1xx_hal.h"
 1175              		.file 20 "Core/Inc/stm32_sw_i2c.h"
 1176              		.file 21 "Core/Inc/dwt_stm32_delay.h"
 1177              		.file 22 "<built-in>"
ARM GAS  C:\Users\limak\AppData\Local\Temp\ccxefUlm.s 			page 35


DEFINED SYMBOLS
                            *ABS*:00000000 main.c
C:\Users\limak\AppData\Local\Temp\ccxefUlm.s:19     .text.MX_GPIO_Init:00000000 $t
C:\Users\limak\AppData\Local\Temp\ccxefUlm.s:24     .text.MX_GPIO_Init:00000000 MX_GPIO_Init
C:\Users\limak\AppData\Local\Temp\ccxefUlm.s:163    .text.MX_GPIO_Init:00000098 $d
C:\Users\limak\AppData\Local\Temp\ccxefUlm.s:170    .text.MCP3421_ReadRaw:00000000 $t
C:\Users\limak\AppData\Local\Temp\ccxefUlm.s:176    .text.MCP3421_ReadRaw:00000000 MCP3421_ReadRaw
C:\Users\limak\AppData\Local\Temp\ccxefUlm.s:251    .text.MCP3421_ReadRaw:00000054 $d
C:\Users\limak\AppData\Local\Temp\ccxefUlm.s:1154   .bss.hi2c1:00000000 hi2c1
C:\Users\limak\AppData\Local\Temp\ccxefUlm.s:257    .text.MCP3421_Soft_ReadRaw:00000000 $t
C:\Users\limak\AppData\Local\Temp\ccxefUlm.s:263    .text.MCP3421_Soft_ReadRaw:00000000 MCP3421_Soft_ReadRaw
C:\Users\limak\AppData\Local\Temp\ccxefUlm.s:360    .text.mcpToVoltage:00000000 $t
C:\Users\limak\AppData\Local\Temp\ccxefUlm.s:366    .text.mcpToVoltage:00000000 mcpToVoltage
C:\Users\limak\AppData\Local\Temp\ccxefUlm.s:389    .text.mcpToVoltage:0000000c $d
C:\Users\limak\AppData\Local\Temp\ccxefUlm.s:456    .text.mcpToVoltage:00000060 $d
C:\Users\limak\AppData\Local\Temp\ccxefUlm.s:462    .text.StartDefaultTask:00000000 $t
C:\Users\limak\AppData\Local\Temp\ccxefUlm.s:468    .text.StartDefaultTask:00000000 StartDefaultTask
C:\Users\limak\AppData\Local\Temp\ccxefUlm.s:494    .text.HAL_TIM_PeriodElapsedCallback:00000000 $t
C:\Users\limak\AppData\Local\Temp\ccxefUlm.s:500    .text.HAL_TIM_PeriodElapsedCallback:00000000 HAL_TIM_PeriodElapsedCallback
C:\Users\limak\AppData\Local\Temp\ccxefUlm.s:533    .text.HAL_TIM_PeriodElapsedCallback:00000014 $d
C:\Users\limak\AppData\Local\Temp\ccxefUlm.s:538    .text.Error_Handler:00000000 $t
C:\Users\limak\AppData\Local\Temp\ccxefUlm.s:544    .text.Error_Handler:00000000 Error_Handler
C:\Users\limak\AppData\Local\Temp\ccxefUlm.s:576    .text.MX_I2C1_Init:00000000 $t
C:\Users\limak\AppData\Local\Temp\ccxefUlm.s:581    .text.MX_I2C1_Init:00000000 MX_I2C1_Init
C:\Users\limak\AppData\Local\Temp\ccxefUlm.s:638    .text.MX_I2C1_Init:0000002c $d
C:\Users\limak\AppData\Local\Temp\ccxefUlm.s:645    .text.MX_USART1_UART_Init:00000000 $t
C:\Users\limak\AppData\Local\Temp\ccxefUlm.s:650    .text.MX_USART1_UART_Init:00000000 MX_USART1_UART_Init
C:\Users\limak\AppData\Local\Temp\ccxefUlm.s:704    .text.MX_USART1_UART_Init:0000002c $d
C:\Users\limak\AppData\Local\Temp\ccxefUlm.s:1147   .bss.huart1:00000000 huart1
C:\Users\limak\AppData\Local\Temp\ccxefUlm.s:710    .text.MX_USART2_UART_Init:00000000 $t
C:\Users\limak\AppData\Local\Temp\ccxefUlm.s:715    .text.MX_USART2_UART_Init:00000000 MX_USART2_UART_Init
C:\Users\limak\AppData\Local\Temp\ccxefUlm.s:769    .text.MX_USART2_UART_Init:0000002c $d
C:\Users\limak\AppData\Local\Temp\ccxefUlm.s:1140   .bss.huart2:00000000 huart2
C:\Users\limak\AppData\Local\Temp\ccxefUlm.s:775    .text.SystemClock_Config:00000000 $t
C:\Users\limak\AppData\Local\Temp\ccxefUlm.s:781    .text.SystemClock_Config:00000000 SystemClock_Config
C:\Users\limak\AppData\Local\Temp\ccxefUlm.s:887    .rodata.main.str1.4:00000000 $d
C:\Users\limak\AppData\Local\Temp\ccxefUlm.s:892    .text.main:00000000 $t
C:\Users\limak\AppData\Local\Temp\ccxefUlm.s:898    .text.main:00000000 main
C:\Users\limak\AppData\Local\Temp\ccxefUlm.s:1118   .text.main:000000f8 $d
C:\Users\limak\AppData\Local\Temp\ccxefUlm.s:1133   .bss.defaultTaskHandle:00000000 defaultTaskHandle
C:\Users\limak\AppData\Local\Temp\ccxefUlm.s:1130   .bss.defaultTaskHandle:00000000 $d
C:\Users\limak\AppData\Local\Temp\ccxefUlm.s:1137   .bss.huart2:00000000 $d
C:\Users\limak\AppData\Local\Temp\ccxefUlm.s:1144   .bss.huart1:00000000 $d
C:\Users\limak\AppData\Local\Temp\ccxefUlm.s:1151   .bss.hi2c1:00000000 $d
C:\Users\limak\AppData\Local\Temp\ccxefUlm.s:396    .text.mcpToVoltage:00000013 $d
C:\Users\limak\AppData\Local\Temp\ccxefUlm.s:396    .text.mcpToVoltage:00000014 $t

UNDEFINED SYMBOLS
HAL_GPIO_WritePin
HAL_GPIO_Init
HAL_I2C_Master_Transmit
HAL_Delay
HAL_I2C_Master_Receive
I2C_write_byte
I2C_read_byte
__aeabi_i2d
__aeabi_dmul
ARM GAS  C:\Users\limak\AppData\Local\Temp\ccxefUlm.s 			page 36


__aeabi_ddiv
__aeabi_d2f
osDelay
HAL_IncTick
HAL_I2C_Init
HAL_UART_Init
memset
HAL_RCC_OscConfig
HAL_RCC_ClockConfig
HAL_Init
DWT_Delay_Init
I2C_init
snprintf
strlen
HAL_UART_Transmit
HAL_GPIO_TogglePin
__aeabi_f2d
__aeabi_f2iz
__aeabi_i2f
__aeabi_fsub
__aeabi_fmul
